(dp0
S'y'
p1
(lp2
F-5.788596488855261
aF-5.790744456642107
aF-5.7744724738239075
aF-5.7733757441654365
aF-5.771256719067818
aF-5.7707417110673624
aF-5.766944695908029
aF-5.764347529924361
aF-5.762115101258176
aF-5.759627435031925
aF-5.7730429208012355
aF-5.774321460044078
aF-5.775601189623265
aF-5.776959389047592
aF-5.778031138813997
aF-5.779282040672465
aF-5.7805341380488
aF-5.781780557965806
aF-5.788236531603654
aF-5.790820582438551
aF-5.792858074804212
aF-5.795288553090638
aF-5.78187503462773
aF-5.780574477176442
aF-5.779264743824255
aF-5.777883251692778
aF-5.773118478067165
aF-5.770999360538491
aF-5.768858570517486
aF-5.766733284007728
aF-5.77860467646937
aF-5.7792289053197745
aF-5.780150330467923
aF-5.781179058986993
aF-5.7753119471229555
aF-5.774808811366837
aF-5.774242553056012
aF-5.77364462242435
aF-5.77129578302993
aF-5.771100860153765
aF-5.770165415013149
aF-5.769264808147691
aF-5.777936513009796
aF-5.7789477273863294
aF-5.780015421256442
aF-5.78121742896356
aF-5.7831693552072245
aF-5.784588626454767
aF-5.785937412092951
aF-5.787441363545339
aF-5.78535658521322
aF-5.785915025510343
aF-5.786511850453983
aF-5.787113780649659
aF-5.778174485096429
aF-5.776885387471615
aF-5.7755318153399955
aF-5.774022198839139
aF-5.778903346130328
aF-5.778897169701095
aF-5.778890535768372
aF-5.778883401758334
aF-5.780934954238955
aF-5.781395601788301
aF-5.781855654867688
aF-5.782318654369836
aF-5.7837675893029115
aF-5.783987475990627
aF-5.784537501755729
aF-5.7848905480599
aF-5.78018211828106
aF-5.7797662402766585
aF-5.779187689613114
aF-5.778573610470874
aF-5.775194747080815
aF-5.7741063781019335
aF-5.772910049103996
aF-5.771714471990146
aF-5.777250095604552
aF-5.777601227636337
aF-5.77791331508172
aF-5.778235580019702
aF-5.789319341604289
aF-5.792063233054734
aF-5.7948067183751295
aF-5.797711503184139
aF-5.779053271693267
aF-5.777034529561482
aF-5.775010368161444
aF-5.772992062806504
aF-5.777933022027311
aF-5.777509565533576
aF-5.777102374354135
aF-5.776662022011996
aF-5.7746588167594
aF-5.773875473355949
aF-5.7730876376538
aF-5.772236427438847
aF-5.779877894197222
aF-5.780813390742826
aF-5.7818615048423805
aF-5.782908294374732
aF-5.791363759178514
aF-5.793248578824994
aF-5.795539693230268
aF-5.798073299052047
aF-5.784712032263013
aF-5.783742659713823
aF-5.782768935398117
aF-5.781710957454234
aF-5.775737286000632
aF-5.773643595492178
aF-5.771460587392481
aF-5.769482933769647
aF-5.77336392342964
aF-5.772548199275585
aF-5.77182348267492
aF-5.771054131384254
aF-5.765275638368969
aF-5.763412723661068
aF-5.761543328768882
aF-5.759189108462875
aF-5.757432509740267
aF-5.75550376695475
aF-5.7532993694743535
aF-5.750811422115508
aF-5.750955726971133
aF-5.750731374145562
aF-5.749791162519913
aF-5.7484714956851235
aF-5.760559720666493
aF-5.761184037800373
aF-5.761327394656807
aF-5.762234603893827
aF-5.78675404734176
aF-5.79300161843595
aF-5.799273126680075
aF-5.8055209231240035
aF-5.796140397621121
aF-5.799208704790803
aF-5.801920370048243
aF-5.80480967383744
aF-5.754512661607124
aF-5.753972062652947
aF-5.748086789676408
aF-5.7408599133471405
aF-5.7384946338322145
aF-5.737581253942427
aF-5.733929124134731
aF-5.7290398023480815
aF-5.74744913001566
aF-5.747497761168645
aF-5.747540659335389
aF-5.747586451207926
aF-5.758265900940355
aF-5.760550109465564
aF-5.762840411681529
aF-5.765289149857122
aF-5.763991489135924
aF-5.765611577268757
aF-5.767119452779641
aF-5.768688142757684
aF-5.766986031117002
aF-5.767941943222064
aF-5.768751238617677
aF-5.76943570919847
aF-5.772819011482607
aF-5.774237708539228
aF-5.776156594753772
aF-5.777668047111147
aF-5.815618227969707
aF-5.819276716895965
aF-5.8265116035835955
aF-5.8344234663971015
aF-5.786807641147863
aF-5.783181078602948
aF-5.780277991300528
aF-5.776467392107239
aF-5.774838045010107
aF-5.771478488844402
aF-5.767248286383607
aF-5.764592609198928
aF-5.778554565467964
aF-5.778834586311315
aF-5.779116003694561
aF-5.779502069182502
aF-5.785362177639491
aF-5.786943138221936
aF-5.788344736941866
aF-5.789733722326368
aF-5.803638231091977
aF-5.807637411074527
aF-5.811651174776625
aF-5.816050321369829
aF-5.8149587589935425
aF-5.817999491523271
aF-5.82105180781922
aF-5.826495363519307
aF-5.832334133852203
aF-5.836159352665542
aF-5.839569276000349
aF-5.843176921828356
aF-5.836188568669076
aF-5.837613267430905
aF-5.839832229691358
aF-5.841323881000742
aF-5.82904894561432
aF-5.828462606865697
aF-5.827233772342057
aF-5.825997459423121
aF-5.830765420048769
aF-5.830780950691539
aF-5.830859428484926
aF-5.830872976548942
aF-5.85502946361987
aF-5.860031785376336
aF-5.865035148523821
aF-5.870282777945351
aF-5.8786084796370295
aF-5.884042862634294
aF-5.889743314348442
aF-5.895429156405026
aF-5.885591605400249
aF-5.8879425362792706
aF-5.890316251134577
aF-5.892818263011217
aF-5.898218404801371
aF-5.9013038228780115
aF-5.904400832216586
aF-5.90774998865372
aF-5.898249635666833
aF-5.8987699823906485
aF-5.899296822346068
aF-5.901109940914825
aF-5.909117977388531
aF-5.911245756614271
aF-5.913139087064939
aF-5.915195306012928
aF-5.925915322290386
aF-5.929293475224018
aF-5.933045844722047
aF-5.937100251309598
aF-5.931294286602733
aF-5.933127461185769
aF-5.9349647738272315
aF-5.936804313523229
aF-5.954212415996315
aF-5.959666108800739
aF-5.964353511837487
aF-5.969455958041726
aF-5.979431173925028
aF-5.985585051971309
aF-5.991682353903625
aF-5.998327228294254
aF-6.000508326622565
aF-6.005867798138281
aF-6.011611645042942
aF-6.016639186357039
aF-6.000978534042712
aF-6.001870775406243
aF-6.002764891669916
aF-6.003659387207283
aF-6.007849551696098
aF-6.008530439974626
aF-6.00996953615218
aF-6.011500669625982
aF-6.026547676132255
aF-6.030893422544496
aF-6.035251138166167
aF-6.039613819180397
aF-6.056898518541583
aF-6.064597891995696
aF-6.071130893128309
aF-6.078248490563331
aF-6.110621115953247
aF-6.122940931142029
aF-6.122324284896418
aF-6.123167630110997
aF-6.128684530737441
aF-6.134806724727566
aF-6.139011897906808
aF-6.14472732412249
aF-6.150454107051415
aF-6.156188308478507
aF-6.148843594452943
aF-6.151834850910406
aF-6.154831880905143
aF-6.157838585475851
aF-6.154690608107176
aF-6.156412260068064
aF-6.158134912155288
aF-6.159860061109638
aF-6.159996667830738
aF-6.16115180266147
aF-6.162503695362705
aF-6.1638590265615125
aF-6.17177795664766
aF-6.1744576039706836
aF-6.177145476215676
aF-6.179832316313599
aF-6.267128813468734
aF-6.287025433375765
aF-6.306929791619516
aF-6.326867815616826
aF-6.276070648994716
aF-6.281524199647206
aF-6.2869776192057785
aF-6.292442771669939
aF-6.293092751969972
aF-6.297569304566197
aF-6.302074936169566
aF-6.296377282749984
aF-6.297781191837226
aF-6.300285842162262
aF-6.30210658184064
aF-6.30391243336117
aF-6.309392515519651
aF-6.311189259208648
aF-6.313587122992528
aF-6.329535205096166
aF-6.333118310800415
aF-6.340906285217486
aF-6.346331642052927
aF-6.340590492007133
aF-6.3427647955293995
aF-6.345198265740793
aF-6.347558056906427
aF-6.399597846496723
aF-6.406206909007906
aF-6.419040455540275
aF-6.432302324488195
aF-6.395276676210423
aF-6.39585162694658
aF-6.395958456957741
aF-6.396877241462474
aF-6.400065574034041
aF-6.400957141339367
aF-6.402295174214052
aF-6.404042370158782
aF-6.421557582408308
aF-6.4242577207114815
aF-6.429085867535919
aF-6.43397600877436
aF-6.431314442609878
aF-6.432857076475475
aF-6.435610255917577
aF-6.439019020883979
aF-6.4395050546882295
aF-6.441188300607433
aF-6.443417695234126
aF-6.4456599879891865
aF-6.458708504630295
aF-6.46336438697266
aF-6.468195363738479
aF-6.4730265902823625
aF-6.480414626542187
aF-6.4845607938569945
aF-6.4858634583826325
aF-6.4902941392084355
aF-6.500698232150487
aF-6.503369872875566
aF-6.5087043166476635
aF-6.514024492361209
aF-6.546619620038582
aF-6.551514178860334
aF-6.554322316367596
aF-6.565892991809576
aF-6.5639214648902255
aF-6.567309618890619
aF-6.57371792015289
aF-6.580120478520538
aF-6.568570779080996
aF-6.569722713545664
aF-6.571151464394733
aF-6.573010876383654
aF-6.582468515545721
aF-6.5841632493601026
aF-6.587445819467849
aF-6.5907404221290715
aF-6.60052863438785
aF-6.604343621056667
aF-6.608971682631214
aF-6.613597446389405
aF-6.608188431591952
aF-6.610414590080618
aF-6.612522110190694
aF-6.615226875529981
aF-6.618616808283591
aF-6.623402217890762
aF-6.623574618998113
aF-6.624728153262563
aF-6.626177188920618
aF-6.628395904172174
aF-6.6307373885239524
aF-6.632897470440843
aF-6.623964829073283
aF-6.623383078423554
aF-6.6233355448670626
aF-6.623196166283742
aF-6.620708090142773
aF-6.619486390653931
aF-6.618663303525286
aF-6.6178688726494945
aF-6.616295224832255
aF-6.61528819169307
aF-6.623931234157414
aF-6.622740586725537
aF-6.621854436173564
aF-6.6209177993243795
aF-6.619853527840657
aF-6.617232459807352
aF-6.6344954526996
aF-6.63647796026309
aF-6.639483035948144
aF-6.642493495910418
aF-6.6696220269800754
aF-6.675824893912024
aF-6.684596841557674
aF-6.695233958805782
aF-6.676924769201769
aF-6.681182264978321
aF-6.684410592739299
aF-6.687649640895019
aF-6.641785350241492
aF-6.636179357961877
aF-6.628993613616288
aF-6.622358145998543
aF-6.625132664165104
aF-6.62016163014354
aF-6.615187587154164
aF-6.610190927088851
aF-6.637851763212876
aF-6.63984508506627
aF-6.641813184939996
aF-6.641247056819721
aF-6.660830196352695
aF-6.66671817265401
aF-6.6721880543261936
aF-6.677882578761698
aF-6.672332098054474
aF-6.675662493509263
aF-6.678989978677765
aF-6.682323751666637
aF-6.657017040867044
aF-6.654416353219711
aF-6.6518036697228595
aF-6.649190098804592
aF-6.623793280811839
aF-6.616478330209453
aF-6.609139288795022
aF-6.6018003060670996
aF-6.603302972752583
aF-6.600647163641765
aF-6.595596540870819
aF-6.590558671036805
aF-6.608891996478913
aF-6.608726884125588
aF-6.608560808258231
aF-6.608394957188711
aF-6.6281162828647675
aF-6.631988838894724
aF-6.635885992312012
aF-6.626314249900725
aF-6.626499075979069
aF-6.626812140313654
aF-6.627126106526047
aF-6.621333194587602
aF-6.620390757833588
aF-6.61918539874789
aF-6.617978987625403
aF-6.6104110136624605
aF-6.608700820907963
aF-6.6060376926956605
aF-6.603454367889359
aF-6.608243630968004
aF-6.607745189643715
aF-6.607070650087316
aF-6.6063985259744165
aF-6.596408076557161
aF-6.593935163004534
aF-6.590988696762253
aF-6.588036324667698
aF-6.5822329805859985
aF-6.578834587323243
aF-6.575209465521821
aF-6.571585516978666
aF-6.570727291282772
aF-6.568463650792548
aF-6.566724972666527
aF-6.563950699716937
aF-6.576934928431817
aF-6.580094870767645
aF-6.581069495958048
aF-6.582160258902379
aF-6.585866008712455
aF-6.586923217459613
aF-6.588591759733555
aF-6.590038976133283
aF-6.587389169156809
aF-6.58716778574434
aF-6.586924106083245
aF-6.587726241003059
aF-6.57299740338928
aF-6.572598762029707
aF-6.570820267603258
aF-6.569140783823353
aF-6.560530809515421
aF-6.557104472037288
aF-6.552654015098332
aF-6.5485320917425
aF-6.548183245900573
aF-6.545908580215572
aF-6.542901657654742
aF-6.538238450726501
aF-6.545268154567514
aF-6.544463287694627
aF-6.543415662830919
aF-6.542366570670267
aF-6.558544502162193
aF-6.561142948535307
aF-6.563964039156314
aF-6.566916694437243
aF-6.55289568366552
aF-6.552349777316772
aF-6.551424078125681
aF-6.551243705085136
aF-6.527789806700487
aF-6.521688971736831
aF-6.515583984252199
aF-6.509371715166843
aF-6.480470306190766
aF-6.469192594072837
aF-6.456580391967041
aF-6.4452860570049
aF-6.470634201097388
aF-6.467691507490214
aF-6.464723650605995
aF-6.461760117919575
aF-6.468123010899756
aF-6.467333485986586
aF-6.466505259749711
aF-6.465675630593999
aF-6.454745387783154
aF-6.4527669922729425
aF-6.4499524504753145
aF-6.447526220978644
aF-6.443829458732026
aF-6.440760920534254
aF-6.437688703771672
aF-6.434459243741994
aF-6.415434979833124
aF-6.412205892130986
aF-6.406077563356258
aF-6.400018734934486
aF-6.392395865779914
aF-6.385894226774262
aF-6.379574954795374
aF-6.373116041191257
aF-6.370269040333872
aF-6.367481927493008
aF-6.3629464867614445
aF-6.358006216009048
aF-6.354798898077568
aF-6.351555965572391
aF-6.3472013530330305
aF-6.342849525830198
aF-6.362712332919159
aF-6.363764382637172
aF-6.364820893716249
aF-6.365880312910534
aF-6.348622290132781
aF-6.345669824926017
aF-6.342649045738048
aF-6.339576567203808
aF-6.28704983771039
aF-6.285645268620085
aF-6.285036554910124
aF-6.258032971069105
aF-6.274699705278051
aF-6.274607953776755
aF-6.268469083178248
aF-6.264324883315591
aF-6.256356158343721
aF-6.250202470881301
aF-6.2444985400393636
aF-6.238092590467031
aF-6.245721768485738
aF-6.243683793634837
aF-6.240570892570703
aF-6.237466504197068
aF-6.234417285514883
aF-6.231741991563011
aF-6.22873783339532
aF-6.225298321613457
aF-6.22017836889133
aF-6.217571523607657
aF-6.214234384067286
aF-6.210832430103798
aF-6.20286266034275
aF-6.1991790245617215
aF-6.1952914920233555
aF-6.192183686075655
aF-6.193244161894035
aF-6.191193097853749
aF-6.184053825562386
aF-6.181436549012947
aF-6.164019918328791
aF-6.158990455821297
aF-6.152132129650948
aF-6.145864808861979
aF-6.138769930915952
aF-6.133329191358143
aF-6.1265117347563
aF-6.120366513054609
aF-6.097863141393513
aF-6.083615996607568
aF-6.078209693972612
aF-6.067999907307407
aF-6.079868594116817
aF-6.074862011093318
aF-6.069828669314851
aF-6.064946574409607
aF-6.069129670493658
aF-6.066159914588782
aF-6.062975273372553
aF-6.059987446153527
aF-6.056375594695372
aF-6.0532515923559815
aF-6.049794592184094
aF-6.047038573194231
aF-6.019319000780337
aF-6.010973879318496
aF-6.002579812764636
aF-5.994247002850209
aF-5.986665896774762
aF-5.978462770828835
aF-5.969508061754048
aF-5.961718218625908
aF-5.955421462449156
aF-5.947664339596969
aF-5.939889178590571
aF-5.94172353012659
aF-5.940755721229134
aF-5.936255936590571
aF-5.931876777823121
aF-5.927466310470047
aF-5.931791034123195
aF-5.931006145604595
aF-5.928663863590047
aF-5.899549703432709
aF-5.897482282410885
aF-5.89281156254045
aF-5.88563443039461
aF-5.876778997111835
aF-5.875316560911458
aF-5.868941246331084
aF-5.862572175488081
aF-5.856023200687757
aF-5.851375072044471
aF-5.845300330643267
aF-5.839245528297835
aF-5.832224563225326
aF-5.827579823690719
aF-5.82161440034958
aF-5.815646158352123
aF-5.821073703415894
aF-5.820423501488758
aF-5.817828242713109
aF-5.815228172784034
aF-5.808715231292164
aF-5.805935400095002
aF-5.803327588914528
aF-5.800605873278888
aF-5.781875771098185
aF-5.7785819166495624
aF-5.774024584961672
aF-5.7680617230767455
aF-5.75069957675586
aF-5.744342495123587
aF-5.7361361381775335
aF-5.727892671807414
aF-5.718167413172428
aF-5.714217728438664
aF-5.706510662142094
aF-5.698802918179376
aF-5.6865261238620555
aF-5.6802323816703515
aF-5.672205471207737
aF-5.6637955660846515
aF-5.656192985418389
aF-5.648055239087842
aF-5.639905249522059
aF-5.631798208964987
aF-5.63986989960154
aF-5.639561265244828
aF-5.635967367315073
aF-5.632380654599663
aF-5.640121858353092
aF-5.639133915549414
aF-5.638601083308672
aF-5.6377049831927675
aF-5.613822200355324
aF-5.613202518382878
aF-5.608055647351038
aF-5.595491636943334
aF-5.575403378853563
aF-5.567243067759465
aF-5.559160544273239
aF-5.551045708347154
aF-5.520342391630246
aF-5.508880220314637
aF-5.495876416977731
aF-5.482823021081199
aF-5.485173750733199
aF-5.477732706618368
aF-5.468714620119753
aF-5.459672917708001
aF-5.485796160574478
aF-5.484405807126444
aF-5.483368735990926
aF-5.482159904228154
aF-5.50451650503246
aF-5.507549413484267
aF-5.511358611562878
aF-5.515213388847357
aF-5.496716493710145
aF-5.496146178973538
aF-5.495138430714905
aF-5.494126371571135
aF-5.45082061998578
aF-5.442768562623209
aF-5.432929634975916
aF-5.422826862649324
aF-5.404625603571779
aF-5.392832127269198
aF-5.380977477667445
aF-5.3679435342517605
aF-5.35333481536408
aF-5.341148252977457
aF-5.32882253742447
aF-5.316450717800721
aF-5.3550597005167075
aF-5.354258640373648
aF-5.353179159313956
aF-5.352091005218303
aF-5.366306347990007
aF-5.3676665326732484
aF-5.369859803759715
aF-5.372074063255019
aF-5.346403821897497
aF-5.343086595227472
aF-5.33972796719577
aF-5.336001127297334
aF-5.330425977715466
aF-5.326217607244964
aF-5.322166484319921
aF-5.318062472041879
aF-5.288458248103367
aF-5.278810287197313
aF-5.269154824620288
aF-5.259460577630972
aF-5.243339060402599
aF-5.231455931229192
aF-5.221146227689743
aF-5.210153089791879
aF-5.220204255887539
aF-5.21367898610699
aF-5.207135434444777
aF-5.20058274184173
aF-5.2081494018933405
aF-5.204877111356438
aF-5.201805619026088
aF-5.198310212746858
aF-5.206015999792319
aF-5.205109838616551
aF-5.2040210684106025
aF-5.202931615930118
aF-5.187702040293891
aF-5.1833878949916095
aF-5.179630767636904
aF-5.175592213756987
aF-5.1299550086766486
aF-5.120742942027979
aF-5.108632980394925
aF-5.096537101012935
aF-5.082335024143198
aF-5.073260341558227
aF-5.061229922952791
aF-5.049038013245235
aF-5.0565146568643815
aF-5.049469393838835
aF-5.041620664728129
aF-5.033814857423285
aF-5.065240829770971
aF-5.06525694134797
aF-5.065328597859915
aF-5.065508306478204
aF-5.072433589624495
aF-5.074021339711112
aF-5.0756134970302185
aF-5.077205355014171
aF-5.052443140562243
aF-5.048714580600595
aF-5.044962780060539
aF-5.041208518929869
aF-4.987922524909706
aF-4.974240888810152
aF-4.9605081159554265
aF-4.946583044733512
aF-4.9503293272573465
aF-4.941840205697024
aF-4.931943719333988
aF-4.925907967691685
aF-4.921256210080336
aF-4.913200614913958
aF-4.9051344425141705
aF-4.93389704720407
aF-4.9343791776168615
aF-4.935474114178534
aF-4.936569094588182
aF-4.923793527927367
aF-4.923228897939334
aF-4.921998530238605
aF-4.920128933451353
aF-4.918254327396127
aF-4.89640180365216
aF-4.890821384818235
aF-4.884973807577391
aF-4.829675342764842
aF-4.820561447796745
aF-4.803868367948013
aF-4.787177694019988
aF-4.780236425498814
aF-4.771451332822564
aF-4.7583665200543495
aF-4.745295517446173
aF-4.779059834768847
aF-4.778161940463792
aF-4.7770819189698095
aF-4.776000678221547
aF-4.781845818212319
aF-4.7822116509016395
aF-4.783508331962166
aF-4.7841775265410655
aF-4.758219099741839
aF-4.753879557488899
aF-4.748108789181124
aF-4.742673365958323
aF-4.715313197046173
aF-4.707161448045598
aF-4.689311465537722
aF-4.678856653680827
aF-4.6709145069310365
aF-4.663156163101533
aF-4.658792601917996
aF-4.650035858824973
aF-4.630676532828506
aF-4.629199907836126
aF-4.6206765558188865
aF-4.611608931354974
aF-4.605194850875863
aF-4.60088840978561
aF-4.593038717977265
aF-4.585120179477927
aF-4.59497230461527
aF-4.593748147361575
aF-4.590852056587347
aF-4.587640319826884
aF-4.578371384965111
aF-4.575001736869519
aF-4.570594291906081
aF-4.566171798976471
aF-4.5561541745416125
aF-4.55112234657652
aF-4.545491744312682
aF-4.539900851849599
aF-4.50674276110289
aF-4.502707281791452
aF-4.4951690130775885
aF-4.4850380664201825
aF-4.472926463304995
aF-4.4659605238843385
aF-4.456026833237091
aF-4.446096955845798
aF-4.46218582280105
aF-4.459539963955493
aF-4.4559955410305765
aF-4.452356196687472
aF-4.442908723932666
aF-4.442035907109231
aF-4.439337255677163
aF-4.435651207032098
aF-4.458432525875324
aF-4.460718567868414
aF-4.4630686620777364
aF-4.465342427935285
aF-4.417204297871381
aF-4.413698026013503
aF-4.405392877235202
aF-4.395909799820626
aF-4.387278935799324
aF-4.38293122311982
aF-4.375304203600562
aF-4.367619633645358
aF-4.328795674777135
aF-4.3245128894031755
aF-4.311692738853552
aF-4.29889751177323
aF-4.276575890283638
aF-4.264779037584473
aF-4.250412596192071
aF-4.235475939801958
aF-4.286661768388801
aF-4.286888863151798
aF-4.287118346922221
aF-4.287349965688417
aF-4.288305573836274
aF-4.28860413030253
aF-4.289050864094495
aF-4.289355457503886
aF-4.25544899769112
aF-4.25439342005512
aF-4.249496891334198
aF-4.243528919629328
aF-4.239890620908675
aF-4.2364644502676265
aF-4.231073240233513
aF-4.223749228785257
aF-4.187269348723119
aF-4.186147818595909
aF-4.185644531906904
aF-4.177097577558287
aF-4.176328829761681
aF-4.169676618529649
aF-4.166392742470262
aF-4.159915902462357
aF-4.14192464936162
aF-4.1368375772350765
aF-4.128515193320489
aF-4.120220699165063
aF-4.11225734283661
aF-4.111461201894707
aF-4.104012553792204
aF-4.098075601406973
aF-4.077462228226748
aF-4.074765722578794
aF-4.066424478990127
aF-4.057851848924811
aF-4.055672292524743
aF-4.050883333135099
aF-4.048212322896655
aF-4.0420704004036
aF-4.046134589161838
aF-4.043970040665524
aF-4.040395333915926
aF-4.036772662403975
aF-4.051638736564295
aF-4.051929254820889
aF-4.052353648692762
aF-4.052747759128511
aF-4.027174300819912
aF-4.026040831829599
aF-4.021518753803356
aF-4.017010099767482
aF-3.939839980215149
aF-3.9242467826148695
aF-3.904689822089762
aF-3.8836277257597986
aF-3.8791776301264056
aF-3.8669439177967706
aF-3.850907450773699
aF-3.8354155265842254
aF-3.856279551659982
aF-3.848267842840894
aF-3.8403158344086457
aF-3.8323196579171834
aF-3.900554243824989
aF-3.9086296087798176
aF-3.9167261468252446
aF-3.9248180552805265
aF-3.9025813827673588
aF-3.9042599270557417
aF-3.905845764075054
aF-3.907486593048339
aF-3.86557429606771
aF-3.8587455572920915
aF-3.8513772049753854
aF-3.844001631875592
aF-3.789765194796548
aF-3.7778005713834406
aF-3.776796160493502
aF-3.7724876299320362
aF-3.7636134374807617
aF-3.7529761676933555
aF-3.7376283521075226
aF-3.75208664619921
aF-3.749766780441303
aF-3.7415484385818014
aF-3.7614468472105154
aF-3.761492656791619
aF-3.7619823053503643
aF-3.762517243732201
aF-3.7542090638432546
aF-3.7356481747364043
aF-3.7349859268361496
aF-3.7323505629083793
aF-3.6817099831333753
aF-3.674005988996536
aF-3.6710098931442268
aF-3.661095358140807
aF-3.637952080805238
aF-3.634730167992248
aF-3.6283681697047445
aF-3.6174589030135067
aF-3.616741782908367
aF-3.613182107096813
aF-3.6059125316382916
aF-3.59863576244434
aF-3.605115603858717
aF-3.6030037916075877
aF-3.59950970300893
aF-3.5960107090042035
aF-3.6050513748151847
aF-3.6048576111988844
aF-3.6045263376900274
aF-3.604171296143834
aF-3.562612418834285
aF-3.554690224980743
aF-3.545437601236925
aF-3.5360142547238715
aF-3.512452794934592
aF-3.5046688774550927
aF-3.4919473142708313
aF-3.4806745497661464
aF-3.4577661713948027
aF-3.454106988847521
aF-3.4416054023954348
aF-3.4291069147006454
aF-3.4299877187885324
aF-3.4210340496144105
aF-3.411548176400782
aF-3.401021479218342
aF-3.455746011012166
aF-3.4580993826810813
aF-3.463456617009646
aF-3.4687558948200317
aF-3.4680106510248367
aF-3.4718732526471565
aF-3.475749037051745
aF-3.4796371687101444
aF-3.419669346073955
aF-3.409597391576562
aF-3.398393275580536
aF-3.3866500029769426
aF-3.362985481582586
aF-3.3516286220887523
aF-3.33798354492187
aF-3.324363932297506
aF-3.3047903963535634
aF-3.290746348530392
aF-3.2758809109778233
aF-3.2610511705275314
aF-3.2714089159605955
aF-3.263221930320311
aF-3.2544658905799
aF-3.2457186991393674
aF-3.3017745893201886
aF-3.307876383459998
aF-3.3110396248503635
aF-3.316792810458562
aF-3.300201286549772
aF-3.300618101202348
aF-3.3012155978359212
aF-3.3016076034123873
aF-3.2569210733543255
aF-3.2479280764731704
aF-3.2381044016393608
aF-3.2269770791095183
aF-3.208701914047287
aF-3.203743760240999
aF-3.1934798000952607
aF-3.1827880878632655
aF-3.1380101641724534
aF-3.124872601564584
aF-3.1072887518927086
aF-3.089782665488059
aF-3.1250302740863085
aF-3.119278452098299
aF-3.114261638382752
aF-3.1089242895623896
aF-3.1424254831997995
aF-3.1455179502648276
aF-3.1489768779164686
aF-3.152412653127551
aF-3.128566253687999
aF-3.125820329429961
aF-3.1230244632997755
aF-3.1203246546323644
aF-3.1008462754715005
aF-3.094240925409462
aF-3.0877290235930164
aF-3.0811674790394625
aF-3.040970983344691
aF-3.0272470735543453
aF-3.0131680329402255
aF-2.9990964883425404
aF-2.986454796512044
aF-2.9834540927185147
aF-2.9722636031529115
aF-2.9605888578254036
aF-2.9853018280745136
aF-2.98175950737044
aF-2.9781982841776538
aF-2.9745402336610183
aF-2.9971938353480736
aF-2.999475863834438
aF-3.001769216342039
aF-3.0040546621907978
aF-2.9725949986877813
aF-2.9674712385090114
aF-2.962261141019398
aF-2.957059556828834
aF-2.9144649916506804
aF-2.901556077991375
aF-2.888282148568481
aF-2.8746858834581626
aF-2.87039214026163
aF-2.8660759385569956
aF-2.8560888538647404
aF-2.8460004369745495
aF-2.8565693566403323
aF-2.8523268329227625
aF-2.8460579522131884
aF-2.8415823303251924
aF-2.8606222297530235
aF-2.860586515280024
aF-2.8605513105144635
aF-2.8605160651364563
aF-2.850881018943674
aF-2.849288729469022
aF-2.847250593424066
aF-2.845233999584504
aF-2.8482547463911567
aF-2.8473219963455305
aF-2.846384041505294
aF-2.84544625866258
aF-2.7812959828062747
aF-2.766780711585364
aF-2.7521806570134233
aF-2.7369404706480815
aF-2.7205365306006173
aF-2.705501407197869
aF-2.690334622434752
aF-2.6752816824717702
aF-2.7095025351872466
aF-2.704649564956324
aF-2.7003669724520023
aF-2.6958131036292228
aF-2.6942674343895052
aF-2.6904380283006257
aF-2.68642192852107
aF-2.682606747310189
aF-2.6892792042917235
aF-2.6876438444031026
aF-2.685967659116713
aF-2.6842875560387074
aF-2.671964434639617
aF-2.668064683729777
aF-2.6641428664409497
aF-2.6602328262401276
aF-2.639978032223279
aF-2.632685163892754
aF-2.625360563256726
aF-2.618035055147017
aF-2.5991626182870813
aF-2.5901634662336295
aF-2.580556882545206
aF-2.5682509139620397
aF-2.547623185777506
aF-2.545725662063954
aF-2.542035987737667
aF-2.5323955993329914
aF-2.5432129891366753
aF-2.5417621777391077
aF-2.5373657574232507
aF-2.5333948224755893
aF-2.519344211248984
aF-2.513052950026765
aF-2.5071476461681286
aF-2.5010153869574374
aF-2.496973770085131
aF-2.491041956330718
aF-2.4850916402020182
aF-2.4747254126894846
aF-2.47324660884268
aF-2.4669724226094765
aF-2.462261779392591
aF-2.4378045914557362
aF-2.431762166268844
aF-2.422117246483677
aF-2.404659684928136
aF-2.39996165528676
aF-2.393222320708831
aF-2.385143411399222
aF-2.377080875179498
aF-2.3597119499003743
aF-2.3555086590806438
aF-2.3465025460502
aF-2.337516004190822
aF-2.3393157828873714
aF-2.3320185939577827
aF-2.325741079015234
aF-2.319280004137151
aF-2.294221382070238
aF-2.287609436755094
aF-2.277599067593468
aF-2.2675401053807263
aF-2.251703446032842
aF-2.24605705079937
aF-2.235746830370059
aF-2.22554498111453
aF-2.2623151896717992
aF-2.262656375475739
aF-2.2635077641103445
aF-2.2643923166340345
aF-2.2507647733901033
aF-2.250153571739774
aF-2.2481000098275334
aF-2.246008061643913
aF-2.2230013650111013
aF-2.216835441284418
aF-2.2100824103114403
aF-2.2032348018275663
aF-2.188281004316873
aF-2.1871721993096402
aF-2.1798313866840813
aF-2.1725803464002045
aF-2.156370119864878
aF-2.1527009352381397
aF-2.145390693292924
aF-2.1372744058406945
aF-2.1350728898246074
aF-2.1282961717564617
aF-2.1214601563875304
aF-2.114697061772472
aF-2.102800703825161
aF-2.0954856442155414
aF-2.0874954634559337
aF-2.079772068733475
aF-2.068880796810064
aF-2.060386814360967
aF-2.05193784274159
aF-2.0424672307551415
aF-2.040544710589348
aF-2.0332012836047313
aF-2.026033401642792
aF-2.0185945682705655
aF-2.0348994091670685
aF-2.032715282987051
aF-2.0309146387878605
aF-2.028914765649174
aF-2.013707358141538
aF-2.008851713322205
aF-2.0039767167758864
aF-1.9990958288771985
aF-1.9862661956752907
aF-1.9796823410522788
aF-1.9731011276306
aF-1.9664936870796836
aF-1.9264236183025538
aF-1.9125713985727453
aF-1.8937494102341619
aF-1.8850298172167377
aF-1.887690665085323
aF-1.8775866985073733
aF-1.867305063357012
aF-1.8569862121800487
aF-1.884667726781732
aF-1.8828236081122838
aF-1.88070146862243
aF-1.8786023329200177
aF-1.868841072288311
aF-1.8643158931883645
aF-1.8612065699419311
aF-1.857309154312495
aF-1.8601832484592355
aF-1.8577584646256637
aF-1.8553194681173304
aF-1.852873257895638
aF-1.8420789327776417
aF-1.8378862115460208
aF-1.8336740032056165
aF-1.8293428545653585
aF-1.820797877567773
aF-1.8158368885998097
aF-1.8107237909487806
aF-1.8056155730259738
aF-1.7749927239281549
aF-1.764888362986904
aF-1.754800035443897
aF-1.74464769577305
aF-1.7349175306498665
aF-1.7250663825521215
aF-1.7150477315723203
aF-1.7047972921710768
aF-1.7054213379249834
aF-1.703912958559206
aF-1.696660564679688
aF-1.7075259664596336
aF-1.7070883649487074
aF-1.7068360319689693
aF-1.705006374980762
aF-1.710024549027911
aF-1.7100191123704445
aF-1.7099686122391362
aF-1.7099184092787496
aF-1.670824668345249
aF-1.6667467982195148
aF-1.6599215385012163
aF-1.651578575239883
aF-1.6043803492799977
aF-1.6028368521843812
aF-1.5932010978397497
aF-1.5777480749336328
aF-1.5885992247777612
aF-1.5866452311583146
aF-1.5796695407214618
aF-1.571281314676575
aF-1.5709833511396223
aF-1.5616304897062996
aF-1.5763540538025795
aF-1.556194499207308
aF-1.555720070168821
aF-1.552218970991981
aF-1.5486108899718491
aF-1.536466563517238
aF-1.5312193555936502
aF-1.5259475427846505
aF-1.4725715385530096
aF-1.4706303878133715
aF-1.4628206295465667
aF-1.4466819852226225
aF-1.4578637502486407
aF-1.4564533394165418
aF-1.4546996375676535
aF-1.4489318610587585
aF-1.4465214526678185
aF-1.4436851416496808
aF-1.4390368723264375
aF-1.4346792265374315
aF-1.4169619650249432
aF-1.4136536039488163
aF-1.4067753961185998
aF-1.3998837229875685
aF-1.3762009542905123
aF-1.371042718285028
aF-1.362967022446166
aF-1.353395105119736
aF-1.3579921796916024
aF-1.353647462437884
aF-1.3464651891952588
aF-1.3421023515220947
aF-1.3225553737075595
aF-1.3179143617495672
aF-1.309669018995681
aF-1.3014346560079284
aF-1.3037458346011892
aF-1.3028648331887362
aF-1.2980940148321194
aF-1.2933214424420898
aF-1.2853989465223625
aF-1.2828272180934457
aF-1.2779009986611394
aF-1.272953457374526
aF-1.2737083193150092
aF-1.2704124600789717
aF-1.267914535854568
aF-1.2639792478242136
aF-1.2395036413128135
aF-1.2364479977432312
aF-1.2291331977029092
aF-1.221199691374057
aF-1.1956020637910934
aF-1.1877775307384386
aF-1.179146149827444
aF-1.1661578755148554
aF-1.1625550129468207
aF-1.161010392623119
aF-1.1550127778865251
aF-1.1471231322286632
aF-1.1547837449702971
aF-1.1520141363768204
aF-1.1480864805297033
aF-1.131235760970739
aF-1.128867518165837
aF-1.1270137294121527
aF-1.1237778988855744
aF-1.120542508941261
aF-1.096969805990275
aF-1.0924669963461966
aF-1.0855625281035328
aF-1.0785495029037246
aF-1.0812993364777652
aF-1.0807531171344573
aF-1.0761787508167906
aF-1.0716135676961889
aF-1.0616283021100301
aF-1.0558556680761022
aF-1.0500527474242034
aF-1.0449523831348904
aF-1.0265914723307237
aF-1.0179890204765165
aF-1.0093282829023744
aF-1.0006383677743829
aF-0.9956432054572213
aF-0.9878300498946633
aF-0.9799941962524192
aF-0.9721578723460924
aF-0.9888879811462123
aF-0.9871535638942133
aF-0.9849738107353323
aF-0.9828191839885161
aF-0.9569584461439904
aF-0.9495387708360781
aF-0.9420562263066437
aF-0.9344941751034463
aF-0.9265962569861621
aF-0.9221951968086612
aF-0.9151738073757647
aF-0.9081751741712702
aF-0.8855035646460543
aF-0.8729522828453584
aF-0.8674527918449675
aF-0.8580331009620501
aF-0.8776086488709787
aF-0.8742665417956159
aF-0.8708841137568735
aF-0.867490624935515
aF-0.8637976863969925
aF-0.8603460894428503
aF-0.8568741945888974
aF-0.8534277768045699
aF-0.8175987274896555
aF-0.8050247442719476
aF-0.7981815828840952
aF-0.7880858618935251
aF-0.7855724238410771
aF-0.7771036090418928
aF-0.7685173136996548
aF-0.7605751801534648
aF-0.7681749598948056
aF-0.7632279334754015
aF-0.7581858832116737
aF-0.7529170902886522
aF-0.7554291242115045
aF-0.7519958951674193
aF-0.7485545753106297
aF-0.7451160624704913
aF-0.7203206543266436
aF-0.7123409552624818
aF-0.7043370421608612
aF-0.6962467238551886
aF-0.6845663589573485
aF-0.676341886501743
aF-0.6676325927491495
aF-0.6589129309143846
aF-0.6547337672802982
aF-0.6470540541527958
aF-0.6393420774821914
aF-0.6316099631638759
aF-0.6269355167827326
aF-0.6205863703716661
aF-0.6136597284307408
aF-0.6067252558536937
aF-0.6134532849353382
aF-0.6098581942234853
aF-0.6057997425493165
aF-0.6017269545939268
aF-0.5976526817278796
aF-0.5939316106560897
aF-0.5894262373317245
aF-0.5862496595358744
aF-0.5787007821999577
aF-0.5744153462858819
aF-0.5697640040104179
aF-0.5651199553022117
aF-0.5434200126242921
aF-0.5353809022423688
aF-0.5271621069001817
aF-0.5188191494476913
aF-0.4972003250856529
aF-0.48612427113366063
aF-0.47310058226808227
aF-0.46396308710130096
aF-0.4840349241941455
aF-0.47957568204875045
aF-0.47506010403761056
aF-0.47053912370964746
aF-0.45665631130789386
aF-0.4503142614702753
aF-0.4438527047298644
aF-0.43727109892961735
aF-0.42906253138876416
aF-0.42225630488218613
aF-0.41540884345277096
aF-0.4085662009784814
aF-0.3919629977940371
aF-0.38316683685209707
aF-0.3742964241440081
aF-0.3654637923774944
aF-0.3725636399486474
aF-0.36746251905469585
aF-0.36202973497734714
aF-0.35659999069349446
aF-0.37499145163609526
aF-0.37449461933971495
aF-0.37399492199888495
aF-0.3734943609461192
aF-0.3527916655090575
aF-0.3488248974209105
aF-0.34430850837700966
aF-0.33928107398812735
aF-0.28073235680211805
aF-0.26819984724418067
aF-0.2528617952303591
aF-0.2373098364588646
aF-0.2423749689044028
aF-0.23313452495835385
aF-0.22153482970979432
aF-0.21118633077841586
aF-0.2643001695359164
aF-0.26682532682553983
aF-0.2693590457303632
aF-0.2562212221250846
aF-0.2551006410443257
aF-0.25361399768471404
aF-0.2521175884588409
aF-0.25624528029593474
aF-0.25621892912161215
aF-0.2561877852395771
aF-0.2561566270349669
aF-0.20539989665507807
aF-0.2026015112220998
aF-0.19311016246603163
aF-0.18263213132439216
aF-0.16769577269818026
aF-0.15896920965969397
aF-0.14793660903531514
aF-0.13690621324656682
aF-0.15477037213383493
aF-0.15322410326656843
aF-0.14981308111786884
aF-0.14639830390083208
aF-0.15965312462721126
aF-0.15991260917777783
aF-0.1604201749897518
aF-0.1610227771493946
aF-0.15124031906819368
aF-0.15060726855285456
aF-0.1489295971390252
aF-0.14726009688897435
aF-0.10660516256702746
aF-0.09591658544529125
aF-0.08496045188629875
aF-0.07298083383723597
aF-0.09160987933947506
aF-0.08773691364913105
aF-0.08443836032845375
aF-0.08054256916898339
aF-0.08435129201051517
aF-0.08383421728966223
aF-0.08206010336935243
aF-0.08027874498201726
aF-0.048971907400030545
aF-0.04380635471282268
aF-0.03583196639754149
aF-0.02796961141215526
aF-0.028569859632447958
aF-0.022916240875664684
aF-0.020358832990337916
aF-0.014384267649694138
aF-0.024680822923743406
aF-0.023627639620381835
aF-0.021538075231660514
aF-0.01930096410550064
aF-0.010331476142276586
aF-0.006611927445490551
aF-0.002876546877861763
aF0.006493843627922935
aF0.00837114091744251
aF0.009930499687013317
aF0.010578473724528692
aF0.013614284553046474
aF0.020866419472794995
aF0.024777862385620075
aF0.028775205668570614
aF0.03264167326909018
aF0.036884935136553665
aF0.041851892942649016
aF0.046334715568595364
aF0.0511004331056224
aF0.04908033639944964
aF0.0523522915864163
aF0.05563465224279707
aF0.05892553960328062
aF0.07829941382955052
aF0.08507835579027567
aF0.09188288595736793
aF0.09869411261250871
aF0.09756612661077746
aF0.10272094666805565
aF0.10788486793204477
aF0.11305346535277394
aF0.09945011622614874
aF0.10066019057232545
aF0.10189790220200567
aF0.10313975793887042
aF0.09369426075193843
aF0.0927482500702963
aF0.09184888810675318
aF0.09090004203017088
aF0.09832998212899202
aF0.09911692961155882
aF0.09990645245876806
aF0.10846943367113049
aF0.11416071040006415
aF0.12311812599565464
aF0.12390112430970568
aF0.12496090629947965
aF0.1281208543156902
aF0.13147198007663796
aF0.13442833161951384
aF0.13761976818029265
aF0.14073857284768998
aF0.08892372651471359
aF0.08475494056992883
aF0.08131786987034317
aF0.0733342772132266
aF0.06594610350049734
aF0.0642038021145881
aF0.057713512416703416
aF0.05104906181850577
aF0.0857096253639762
aF0.08755633276689156
aF0.09041049002548363
aF0.09328066941123492
aF0.1344030678800312
aF0.14188126477971785
aF0.1454793849671887
aF0.153756637172763
aF0.16180470254376278
aF0.17077431254319642
aF0.17995644854433213
aF0.18911972433053847
aF0.1431467580161847
aF0.14228804811734808
aF0.14071912819278776
aF0.13796368606537435
aF0.08096524343883349
aF0.07633279114658187
aF0.0631726142846416
aF0.04996497269145728
aF0.08155476853665089
aF0.07862203677147761
aF0.07558830147828655
aF0.07251103711128426
aF0.12058892702449509
aF0.12402190374494548
aF0.13165597465885437
aF0.13909437198343877
aF0.14829887054066138
aF0.15619228228250304
aF0.16409461224029886
aF0.17200361504762274
aF0.1304919733888985
aF0.12769211493349975
aF0.12462925878568942
aF0.12138107733102199
aF0.11226410417777988
aF0.10781889222501562
aF0.0991374689889497
aF0.09490707303247703
aF0.11849107599749331
aF0.12021261338244305
aF0.12183639263552326
aF0.12476532983795163
aF0.12611229284217984
aF0.12772778380999217
aF0.12936421305066403
aF0.13100313260234664
aF0.14302790684825872
aF0.14082018094878634
aF0.14474638316365063
aF0.1485611684917787
aF0.11869366028126027
aF0.11837007474047478
aF0.11673953751933741
aF0.11402542979435548
aF0.10306027385352401
aF0.09845420795246884
aF0.09371449353454864
aF0.08877837292235657
aF0.08873338497849925
aF0.08498678391478798
aF0.08117891225939644
aF0.07965438318258222
aF0.09135614388498503
aF0.09084970564523775
aF0.09034268841461657
aF0.08983322926458293
aF0.08051604173274551
aF0.0782087354923231
aF0.07571118763438278
aF0.07320368419317269
aF0.08915077091901225
aF0.09016646410563212
aF0.09321846699731218
aF0.09442580353253671
aF0.10038230740162835
aF0.1012085789463999
aF0.10312834378906732
aF0.10512498974112017
aF0.09271692799762743
aF0.09193905859782436
aF0.09099078927187687
aF0.09003149926166376
aF0.07481644632271589
aF0.07095567270915293
aF0.06695744130740522
aF0.06319223461710255
aF0.05552982238061954
aF0.05315455340741604
aF0.04881996377297515
aF0.04464810093478899
aF0.05061531660269569
aF0.048562661300453946
aF0.04636781902165854
aF0.04421195914281295
aF0.04977348949243954
aF0.049149541351147796
aF0.04850921988874024
aF0.0506475211652031
aF0.05070059591128118
aF0.05077840187933713
aF0.050849342571210876
aF0.05634117957875873
aF0.05652190589683581
aF0.057683744646948476
aF0.058851369106811546
aF0.05220599967667905
aF0.05161384592745044
aF0.05086833293132731
aF0.05011242295095375
aF0.044638837076802496
aF0.0431516549069757
aF0.04126713169762741
aF0.03949021665207564
aF0.03627253091727045
aF0.034588482709055235
aF0.032611584124559556
aF0.030550784570261946
aF0.03153606610654247
aF0.03112594745484909
aF0.030011578075685996
aF0.028869309040778113
aF0.03957955202859953
aF0.040058098911421425
aF0.040518637783614864
aF0.04161701716629729
aF0.0435649326725942
aF0.044020278077822717
aF0.045270077055768354
aF0.04653290292539314
aF0.039295207256528464
aF0.039248616361937216
aF0.0387779546125655
aF0.03830233643428027
aF0.028203699790315895
aF0.025380470097153385
aF0.02255798604681658
aF0.01973498230602644
aF0.024830750394740697
aF0.023872746412487267
aF0.022932220090173594
aF0.02198102459786444
aF0.0239447871760623
aF0.0238125787615191
aF0.023549825611758557
aF0.02332435369304431
aF0.025964788374873926
aF0.026234410553935383
aF0.026632868466884396
aF0.0270266874188545
aF0.030674981379849697
aF0.03125943441424539
aF0.032194694904515764
aF0.03299838524783372
aF0.01665703386413586
aF0.014168610376796842
aF0.0110208972153778
aF0.007428423307396237
aF0.013929283709767759
aF0.013115754564213766
aF0.01168482979798302
aF0.010874477765504764
aF0.024574016607736837
aF0.02365896860539518
aF0.022318711609490727
aF0.026231649265869628
aF0.031352826644114984
aF0.032855539010355095
aF0.03290627159741977
aF0.03296047324833662
aF0.025211377499591237
aF0.024046338395365296
aF0.022481587952654536
aF0.020897273040337616
aF0.020165940262717008
aF0.018676906853230868
aF0.01738048225371891
aF0.015982956628113776
aF0.022917538201443044
aF0.023345444698196438
aF0.023771177961099177
aF0.024348389556176464
aF0.015563742275400472
aF0.014664791842181835
aF0.013228676053491206
aF0.011846625851037906
aF0.008175892319955302
aF0.006251962152423296
aF0.004378570164907281
aF0.002461820410603721
aF-0.0007897216203867075
aF-0.002963494539382161
aF-0.005160939725656455
aF-0.007581782601598697
aF-0.011246508595052163
aF-0.013753034306136946
aF-0.01628465719787986
aF-0.018840462507870193
aF-0.01885651868885052
aF-0.020914081379177496
aF-0.02282831976100219
aF-0.024816648038613387
aF-0.02114552286065763
aF-0.021909475275141865
aF-0.02268159617165999
aF-0.0234613045155454
aF-0.007245355516984908
aF-0.004360061787553882
aF-0.0014553027429764498
aF0.001413889333249152
aF-0.029013521960481015
aF-0.03289569710998652
aF-0.03693536007788989
aF-0.041064103948356134
aF-0.031511037559139865
aF-0.032277319360536794
aF-0.03339324388861176
aF-0.03458964487868599
aF-0.03713393735579018
aF-0.03850218044873088
aF-0.03994606312101112
aF-0.04137007540041715
aF-0.04555055324827961
aF-0.047548196374148866
aF-0.049530606159001955
aF-0.05152554879253923
aF-0.049948678170975924
aF-0.05118546304600802
aF-0.05244014674816455
aF-0.05369046108977393
aF-0.025530495973542955
aF-0.021381999412721342
aF-0.014804470792276092
aF-0.011944445216468758
aF-0.02917398703515417
aF-0.028941046937230652
aF-0.028707094369543107
aF-0.0284730332561125
aF-0.05151729918116921
aF-0.05597399609996856
aF-0.06052124174697937
aF-0.06699654284861101
aF-0.0686865494195743
aF-0.0730397011272137
aF-0.07740422367646538
aF-0.08175058422295933
aF-0.0669029073248879
aF-0.06714568780162278
aF-0.0675833831522814
aF-0.0680289317140712
aF-0.05704777752733925
aF-0.05519207784997526
aF-0.05332933729494904
aF-0.06396080966269135
aF-0.06455403814477734
aF-0.06570280245072979
aF-0.06686786454549498
aF-0.07667031895696841
aF-0.07891914269954103
aF-0.08168920773044164
aF-0.08468689461223455
aF-0.09474456885256544
aF-0.09784478803264385
aF-0.10192490704240953
aF-0.10626504590269104
aF-0.08353722800397012
aF-0.08217738089517201
aF-0.08006770491852144
aF-0.07795131458591875
aF-0.08434305383147134
aF-0.08431348157461471
aF-0.08427205573999075
aF-0.08423115309503526
aF-0.0803755083663873
aF-0.07983528096545278
aF-0.07894881631835649
aF-0.07806991371809602
aF-0.08621748723596845
aF-0.08717919959804554
aF-0.0883897556564257
aF-0.08959771002199624
aF-0.08156638236601665
aF-0.08067937231894007
aF-0.07976732312532064
aF-0.07880261684339018
aF-0.06707621773443062
aF-0.06377548799762778
aF-0.06032940358305616
aF-0.05687296721371915
aF-0.0801864791610356
aF-0.08261573421182078
aF-0.08531606999415153
aF-0.08801958618013206
aF-0.08915358749894864
aF-0.09149135155675392
aF-0.09385061223106561
aF-0.09615088110305603
aF-0.08297983436967726
aF-0.08174899292315008
aF-0.08044824739085854
aF-0.07915337349027851
aF-0.08107481681318784
aF-0.08079803310387934
aF-0.07983029804967412
aF-0.07886094566702084
aF-0.07115605067404118
aF-0.08447968708435027
aF-0.08213902372116699
aF-0.07988533197555903
aF-0.10373075732150738
aF-0.10520350324813066
aF-0.10669181269894867
aF-0.1081763136566618
aF-0.1090523319743566
aF-0.11037519807899354
aF-0.11340423831710655
aF-0.11474400194504408
aF-0.11547120471080508
aF-0.11662923588754115
aF-0.11346844061896544
aF-0.11467247329598962
aF-0.12307999015749616
aF-0.12447039932812842
aF-0.12076513070556505
aF-0.12337813375022932
aF-0.12205386888828773
aF-0.12356341789186498
aF-0.1280902188484978
aF-0.12968210834045024
aF-0.11969354203178106
aF-0.11884305537018847
aF-0.11914361986730881
aF-0.11830652680105302
aF-0.1171885706414848
aF-0.11623853654605742
aF-0.11528584665162
aF-0.11433591528767373
aF-0.11363368408804497
aF-0.11277863901304741
aF-0.1118891384207048
aF-0.11100083244747694
aF-0.11521383883246905
aF-0.11544265134350251
aF-0.11567750341716909
aF-0.11590528054821725
aF-0.1252212472813916
aF-0.1274316094235104
aF-0.12963993807312946
aF-0.13185438488279644
aF-0.12943609913574328
aF-0.13064385870727868
aF-0.1318637352813825
aF-0.1331058585948348
aF-0.1248876510236947
aF-0.12407312126636949
aF-0.12339650836436356
aF-0.12264666313306982
aF-0.11943698788580015
aF-0.11854506455800173
aF-0.11733033390471981
aF-0.11613151435320113
aF-0.10427964696235037
aF-0.1008309378957275
aF-0.09706855623537969
aF-0.08822847717979077
aF-0.10732717655957469
aF-0.10848673769430572
aF-0.10974310400448761
aF-0.11083520273422298
aF-0.1217154530463267
aF-0.12485499708935688
aF-0.1280094398488556
aF-0.13117163550580546
aF-0.12185091808154436
aF-0.12241592356626274
aF-0.12298802981372692
aF-0.12362086908288639
aF-0.1359807777778821
aF-0.13899708323715831
aF-0.14207606592604272
aF-0.1312233831332339
aF-0.130851643891444
aF-0.1303806676121546
aF-0.12991111502306918
aF-0.13075320390379996
aF-0.1307019188082963
aF-0.1306715027899834
aF-0.13059679498333665
aF-0.12921571835521561
aF-0.1291633926134681
aF-0.12881767414312417
aF-0.12846968316320506
aF-0.12644451602004292
aF-0.12614884246326152
aF-0.1254833350322384
aF-0.12482005546807518
aF-0.15164766105540028
aF-0.15581617119855284
aF-0.16258875060108213
aF-0.16666508681822645
aF-0.1689507408836457
aF-0.17171983179284833
aF-0.1761323246923796
aF-0.18059977774970992
aF-0.1585281522082198
aF-0.1574953601665987
aF-0.15570456436738667
aF-0.1539116244178329
aF-0.17377491299258185
aF-0.1761057725094517
aF-0.17927357774820418
aF-0.182402161762945
aF-0.18690121047507535
aF-0.18779920164899622
aF-0.19088865845976333
aF-0.19375568341678306
aF-0.16122530262840495
aF-0.15597907763856078
aF-0.15071006129145648
aF-0.14544753268745492
aF-0.13763288034745003
aF-0.13174923663341875
aF-0.12594077727168784
aF-0.11966468621935089
aF-0.16390236918731738
aF-0.16897916107519695
aF-0.17442130666482747
aF-0.17989186044860261
aF-0.1751628487888679
aF-0.17827984277325815
aF-0.1813971990840404
aF-0.18452126468005137
aF-0.1843564450997146
aF-0.18596076361324965
aF-0.18817436992830405
aF-0.19040444975888438
aF-0.16162715260812988
aF-0.15695683692385476
aF-0.15149939779760313
aF-0.1475616461426048
aF-0.1558323906036323
aF-0.1558842492919732
aF-0.15593628624390643
aF-0.15522542777306203
aF-0.16670042566460808
aF-0.16945731000500608
aF-0.17192855265154794
aF-0.17455695478827504
aF-0.19620888797640745
aF-0.19918581856245687
aF-0.204898465630313
aF-0.2108023928464009
aF-0.1965284681411914
aF-0.19791400260536296
aF-0.19930168720061037
aF-0.20074208732383259
aF-0.18463845521935784
aF-0.18220217129358307
aF-0.17929584187286807
aF-0.1768864110036974
aF-0.12890332424466155
aF-0.12017417368158068
aF-0.11934875279307722
aF-0.10955076712861178
aF-0.1423040098181536
aF-0.14165406248735923
aF-0.1409967511967869
aF-0.1388573680219629
aF-0.16354661711846674
aF-0.16839754372420312
aF-0.17316488323319845
aF-0.1780394272457695
aF-0.19407170620470282
aF-0.2012787936396645
aF-0.20850062333710362
aF-0.2169362904578609
aF-0.22981995517773157
aF-0.23849376595854466
aF-0.24715740195721558
aF-0.2553561889862417
aF-0.21702072845531362
aF-0.2158446079324854
aF-0.2146577639578302
aF-0.21356115840682044
aF-0.1878045530807242
aF-0.18146758339624736
aF-0.17510028403016342
aF-0.16743559312359402
aF-0.17467666964184136
aF-0.17117141011072246
aF-0.16763988941112373
aF-0.16410508253952916
aF-0.18501300452707614
aF-0.18714255022389192
aF-0.18801341260098958
aF-0.18908648814250295
aF-0.18939260512426692
aF-0.1905649783771315
aF-0.1917260014981803
aF-0.19516823748443723
aF-0.19615239459126332
aF-0.19773719369623066
aF-0.19933376585273788
aF-0.20590129609347496
aF-0.2068039246440767
aF-0.2090222358636984
aF-0.2139672261002703
aF-0.1951039202865621
aF-0.19391175247931436
aF-0.1914218073663676
aF-0.18894331328801695
aF-0.20598476112422315
aF-0.20614005477264197
aF-0.20744993275091783
aF-0.2092245701914992
aF-0.21468273477799915
aF-0.21553767855267303
aF-0.21792777231788207
aF-0.22016478684085516
aF-0.21870754920291358
aF-0.21890891817917346
aF-0.21975901877558446
aF-0.22088901859012644
aF-0.2139761938879241
aF-0.21397033095230444
aF-0.21343725854697038
aF-0.21282883124780483
aF-0.2013882191128049
aF-0.20097394412897795
aF-0.19890067459816319
aF-0.196454277421239
aF-0.22240279931650786
aF-0.2235960025455137
aF-0.22649745236679752
aF-0.224936804003387
aF-0.22572173560071906
aF-0.2274567707902042
aF-0.22927506539369968
aF-0.22311671605107364
aF-0.2230652988498285
aF-0.22301288407502096
aF-0.22296166482846047
aF-0.2051204752304523
aF-0.20196197305863084
aF-0.19824729353207982
aF-0.1943297936318933
aF-0.20890902417307977
aF-0.20914151093751876
aF-0.20936749122023102
aF-0.20964866426116746
aF-0.2134978244816823
aF-0.21438545385952334
aF-0.21509251915629957
aF-0.21608994621547684
aF-0.22328078237079918
aF-0.22400927657842118
aF-0.22575992220263785
aF-0.22772676485113763
aF-0.21292275932541394
aF-0.2123658541815292
aF-0.21194959927304158
aF-0.21075666517536806
aF-0.20863291242932025
aF-0.20778679675650746
aF-0.20638199703070814
aF-0.20496435437810767
aF-0.21872283192728847
aF-0.21976575787410457
aF-0.22140882565974707
aF-0.22319609882539648
aF-0.22353063756653402
aF-0.2249291353719558
aF-0.2263865467048145
aF-0.2278110189988647
aF-0.2225930239989964
aF-0.22258899359905726
aF-0.2225833124158001
aF-0.22125434590066018
aF-0.22113527749111928
aF-0.22087117877358686
aF-0.22061022593598523
aF-0.23347183282034312
aF-0.23503291587528619
aF-0.23743105392732922
aF-0.23984217993505208
aF-0.22414199821064607
aF-0.22270147884526192
aF-0.22116584118084326
aF-0.21978016726683958
aF-0.21268161669154573
aF-0.2119000178543038
aF-0.21095310431691683
aF-0.20942981890496437
aF-0.21915527277637725
aF-0.21932389252087692
aF-0.21969378479360469
aF-0.2200632006641401
aF-0.23942139386482175
aF-0.24323441791647227
aF-0.2480876636980085
aF-0.25086539442332345
aF-0.24730329587210687
aF-0.24870721289265685
aF-0.251436728981302
aF-0.2538039418946898
aF-0.23467613870619264
aF-0.23277296660766833
aF-0.23054963129070138
aF-0.2283771045350722
aF-0.2212535131498905
aF-0.22030231795133215
aF-0.21658971779103986
aF-0.2371663420927721
aF-0.23759148352136972
aF-0.24003491444542568
aF-0.24343898705223843
aF-0.2615372295909735
aF-0.2619189056617719
aF-0.26544312997498043
aF-0.27092025846457624
aF-0.2622877405584543
aF-0.2628288042673974
aF-0.26432561226687223
aF-0.26583201518942
aF-0.2504049836590063
aF-0.24911477994277398
aF-0.24662747972905663
aF-0.24318117129297345
aF-0.2400891578145048
aF-0.23231208180377827
aF-0.23203711015468542
aF-0.22976158558206627
aF-0.2310995198698489
aF-0.22936235396318327
aF-0.2271546720372788
aF-0.22511930304585892
aF-0.2391123674863911
aF-0.24055740174423423
aF-0.2415377503940821
aF-0.24325897152872678
aF-0.24807975189593812
aF-0.2533222692110666
aF-0.25570075117034907
aF-0.2580807697024676
aF-0.26165090176731276
aF-0.26188627252323915
aF-0.26407551225926706
aF-0.26643090172649675
aF-0.27042457342550197
aF-0.272660076988565
aF-0.27524864771898994
aF-0.2778216387682866
aF-0.2522424651276749
aF-0.2490287159257054
aF-0.2450972355755887
aF-0.2411020936278323
aF-0.23274539905468483
aF-0.2316232663021136
aF-0.2273792488901174
aF-0.2217337249936051
aF-0.2613739017189136
aF-0.2689774062672843
aF-0.2747512050118486
aF-0.27933039874430765
aF-0.26826637209498116
aF-0.26876115781403254
aF-0.2702196314532266
aF-0.2716844405856813
aF-0.2556735992579027
aF-0.2530000944641344
aF-0.2479060312335024
aF-0.24477839036844973
aF-0.25261365403663305
aF-0.25244747471404416
aF-0.25217377292101695
aF-0.25191850199918964
aF-0.25755756156987175
aF-0.25827753804396547
aF-0.25930312929724586
aF-0.2605734891335869
aF-0.2571406951134074
aF-0.2571916185820182
aF-0.25724648401593964
aF-0.2573015245700958
aF-0.26852254973754697
aF-0.271075770673046
aF-0.27346685311180163
aF-0.27611827996793536
aF-0.2607086264173013
aF-0.25843549708230906
aF-0.25806517299862985
aF-0.25662806837119945
aF-0.25661972435074176
aF-0.2559237690769809
aF-0.2548219675068628
aF-0.2539289692681219
aF-0.24382802878172516
aF-0.24197340386632327
aF-0.2391438163715689
aF-0.23628066607584053
aF-0.24359763554227776
aF-0.243051594053024
aF-0.24249806261609308
aF-0.24194576403780665
aF-0.2573412935964825
aF-0.25918870533300264
aF-0.2621627785876628
aF-0.26483179896217734
aF-0.2646448229631826
aF-0.2665664333505564
aF-0.2691770520603942
aF-0.2707633280458115
aF-0.26063385182252663
aF-0.26034963915682496
aF-0.259752809658349
aF-0.2591621668534536
aF-0.2627952230954351
aF-0.262869311519462
aF-0.26316443024925906
aF-0.26354659977195816
aF-0.2531246271884591
aF-0.2520830486497996
aF-0.25019687570133264
aF-0.24817302105576733
aF-0.2322462047803393
aF-0.23170643445057326
aF-0.2279163287768018
aF-0.2239912805205888
aF-0.2315959214994816
aF-0.23019258336922732
aF-0.22907521086841864
aF-0.22763272158604853
aF-0.2567623950611173
aF-0.2591608006210331
aF-0.26395608160876716
aF-0.26871605479829697
aF-0.26827462249771106
aF-0.2718912571488392
aF-0.2755290118741929
aF-0.27916431010089227
aF-0.28296217666978585
aF-0.28661846334206054
aF-0.2902857085319752
aF-0.29394912484223124
aF-0.26771653202322465
aF-0.2649347507876403
aF-0.2614481182218835
aF-0.25908349640303463
aF-0.25332150691242994
aF-0.24946242945385944
aF-0.24635800623724613
aF-0.2428674827965187
aF-0.2583376979396732
aF-0.25892075905895684
aF-0.2595060162388627
aF-0.2600945253678164
aF-0.2651682369165522
aF-0.26665466495260315
aF-0.2681292347309068
aF-0.2696481525641463
aF-0.27058426086901655
aF-0.2719838957194405
aF-0.27338097032711683
aF-0.27478234188487516
aF-0.2711291793720658
aF-0.2712206610138441
aF-0.2714339214505346
aF-0.2717146976276421
aF-0.2851302984866919
aF-0.28763929631798746
aF-0.2905779487537812
aF-0.2934653711634505
aF-0.30158677845222304
aF-0.3059104217636941
aF-0.30927387216493063
aF-0.31323003267735583
aF-0.2626728472966162
aF-0.2554182834934462
aF-0.24811735580518324
aF-0.2408444038112556
aF-0.24990743182364383
aF-0.24603182413707003
aF-0.24210409450288672
aF-0.256853539093429
aF-0.2570181982438129
aF-0.2577129480647562
aF-0.25841338553582105
aF-0.25240651760581656
aF-0.251840414573282
aF-0.251382012797257
aF-0.2506345844618325
aF-0.2677901393881914
aF-0.2683637973697337
aF-0.27049265349754137
aF-0.2733723941486943
aF-0.2812933812771279
aF-0.2824299923991056
aF-0.2859805920010263
aF-0.28951956154616987
aF-0.27499933506625673
aF-0.27434893897711543
aF-0.2739658160422813
aF-0.273173725295524
aF-0.26713822281975386
aF-0.266351107130391
aF-0.263967342787895
aF-0.26270095292538187
aF-0.2537840585394324
aF-0.25140873750248094
aF-0.2478985303093877
aF-0.24482954685176583
aF-0.2619357192978429
aF-0.2626914815152199
aF-0.2640802869678156
aF-0.26545174378757874
asS'x'
p3
(lp4
F-1.396787383829556
aF-1.3947617610350869
aF-1.393898044479648
aF-1.3931211651035054
aF-1.3916201325717859
aF-1.3893479871606154
aF-1.4017886152073618
aF-1.4036829870803935
aF-1.4053113196938525
aF-1.4071258224857937
aF-1.4036399803335335
aF-1.404194211274445
aF-1.404748958211433
aF-1.405337720855289
aF-1.3974361908782629
aF-1.396000850969806
aF-1.394564139271472
aF-1.393133942140127
aF-1.402792605217757
aF-1.4040432832607
aF-1.4050294275462474
aF-1.4062057766279419
aF-1.3959165382661416
aF-1.394394387688897
aF-1.3928614977914968
aF-1.391244622625156
aF-1.3921479773910939
aF-1.3911779620414313
aF-1.3901980262178257
aF-1.389225187048218
aF-1.3902812799348512
aF-1.3900102780208357
aF-1.3896102516865696
aF-1.3891636408042147
aF-1.4005518240955306
aF-1.4025577116018555
aF-1.4048152543370407
aF-1.407199067391697
aF-1.4110645865507951
aF-1.4140186266975932
aF-1.416536407714583
aF-1.4189604203810302
aF-1.4043838800078892
aF-1.4032392495904271
aF-1.4020306879751754
aF-1.400670091631294
aF-1.4002727751090216
aF-1.399096051420606
aF-1.3979777676437761
aF-1.3967308352456773
aF-1.3986350928453481
aF-1.398208834241652
aF-1.3977532765599494
aF-1.3972938220290825
aF-1.3919513211293033
aF-1.3906709795976466
aF-1.3893266014971482
aF-1.3878272389463882
aF-1.3876086135292955
aF-1.3865057957747409
aF-1.3853212895637759
aF-1.3840474932268494
aF-1.4018870091042375
aF-1.4050120306910823
aF-1.4081330194084156
aF-1.411273996584916
aF-1.4047495384817574
aF-1.4050477914825925
aF-1.4057938431725905
aF-1.4062242856203486
aF-1.3996062352528864
aF-1.3990064552550987
aF-1.3981720684589034
aF-1.3972864424275295
aF-1.3935913366394332
aF-1.392259418230884
aF-1.3907953810835991
aF-1.3893322640730297
aF-1.400217165267691
aF-1.401641909806203
aF-1.402908228008752
aF-1.404215842150394
aF-1.3937582650460052
aF-1.3924439108827835
aF-1.3911297512603196
aF-1.3897383274099462
aF-1.389396887904097
aF-1.3882851689777143
aF-1.3871704656666557
aF-1.3860589872727695
aF-1.3957962806054822
aF-1.3970467997429918
aF-1.3982492854057467
aF-1.3995497000628365
aF-1.394805856442442
aF-1.3947571734259672
aF-1.394708211223314
aF-1.3946553104383765
aF-1.3901825892891437
aF-1.3892812122804266
aF-1.3882713251180516
aF-1.3872627142131142
aF-1.3830544073718047
aF-1.381849646892713
aF-1.3803851863042926
aF-1.3787657272916616
aF-1.3689156008183108
aF-1.3655187779730547
aF-1.3621067059029968
aF-1.3583993968270733
aF-1.3554932643325959
aF-1.3521197560111053
aF-1.3486023326094752
aF-1.3454157914627727
aF-1.3341317502995804
aF-1.3287247010944772
aF-1.323920897872436
aF-1.318821232423077
aF-1.3263279068249703
aF-1.3239969164756071
aF-1.3216578177319285
aF-1.3187120764211189
aF-1.299812472362746
aF-1.2938035218806143
aF-1.2869357760089981
aF-1.2791846374986078
aF-1.2830003412501103
aF-1.2823995458935054
aF-1.2798817493046817
aF-1.2763478080468023
aF-1.2629426076635366
aF-1.2606831772679123
aF-1.2601643626763013
aF-1.256881133666429
aF-1.2571033930022775
aF-1.2537842324499824
aF-1.2504523547564819
aF-1.2471330744821465
aF-1.2480257405512956
aF-1.2454613973080764
aF-1.243195118185342
aF-1.240780377339756
aF-1.2301273129215486
aF-1.2298601997696519
aF-1.2269522514608522
aF-1.2233814089725985
aF-1.1818981331850849
aF-1.1801448903864324
aF-1.1731345868351095
aF-1.163749479599248
aF-1.1525297637919873
aF-1.1421512797889162
aF-1.1329962853048237
aF-1.1232237385434674
aF-1.1446261794043244
aF-1.141448683779883
aF-1.1382627114005839
aF-1.134856343395
aF-1.1346262595251164
aF-1.131928758464693
aF-1.1294180951821424
aF-1.1268061737727526
aF-1.1019696819822355
aF-1.0941280386466625
aF-1.0874891376306461
aF-1.079573288971889
aF-1.087772037867695
aF-1.0837076035068431
aF-1.0804750028164891
aF-1.0761228803990681
aF-1.0638228445491675
aF-1.0627343467642736
aF-1.0581556353644874
aF-1.0531484890162695
aF-1.04655837377432
aF-1.0417372386877943
aF-1.0368040175251125
aF-1.0317321223427651
aF-1.0228532516097208
aF-1.0169373977691532
aF-1.0094884199162024
aF-1.0048120289593627
aF-1.007597289055492
aF-1.0034765407255142
aF-0.999335241105932
aF-0.9928300698476256
aF-0.9792452802737319
aF-0.9725986387527472
aF-0.9667060666348286
aF-0.9608665232387579
aF-0.9642378135178422
aF-0.9601731448857977
aF-0.9560936537182227
aF-0.9516224688145223
aF-0.9629018812253891
aF-0.9619141646731006
aF-0.9609226853835366
aF-0.9591777795020402
aF-0.9403137577636089
aF-0.9353726429521041
aF-0.9309679739598482
aF-0.9263079027050329
aF-0.919719042906805
aF-0.9146602464056639
aF-0.9082868572566052
aF-0.9029936161092493
aF-0.9050956969988166
aF-0.9035244715684092
aF-0.9002315354323596
aF-0.8969185592684412
aF-0.8572192766915152
aF-0.845701168804712
aF-0.8344733216399312
aF-0.8236324828148773
aF-0.8318196705611851
aF-0.8249252611043052
aF-0.8180294163586859
aF-0.8107969135986957
aF-0.8178854730858496
aF-0.8140118023718164
aF-0.8099484757949136
aF-0.805895563096215
aF-0.8109818877855797
aF-0.8081969150143502
aF-0.8061301396082587
aF-0.8039516569649741
aF-0.789497758732908
aF-0.784817746346989
aF-0.7801201521461989
aF-0.7750400971200011
aF-0.7533048771225541
aF-0.7450177209324891
aF-0.7366271521100067
aF-0.729430610083198
aF-0.7262669934882027
aF-0.7188089065505108
aF-0.7121725868928794
aF-0.7049653261528932
aF-0.7292619128884938
aF-0.7286417485081111
aF-0.7279528851113288
aF-0.7272085734716294
aF-0.7318616935982454
aF-0.7322668622382826
aF-0.7326729454728818
aF-0.7330795209315526
aF-0.7163438211125377
aF-0.7129490272534116
aF-0.7100312305209857
aF-0.7068550793034811
aF-0.6996468406635534
aF-0.695601286825291
aF-0.6915929260729641
aF-0.6872245916838824
aF-0.6750034254413602
aF-0.6691727023200955
aF-0.6629238061642351
aF-0.6574541994507253
aF-0.6315441858803492
aF-0.6214381753789318
aF-0.6113109287397136
aF-0.6011793862405579
aF-0.5916680858499874
aF-0.5874200883606417
aF-0.578441703591873
aF-0.568889106847783
aF-0.6119279314845225
aF-0.6139011900409015
aF-0.6158798834162229
aF-0.617860831410757
aF-0.6547951072690354
aF-0.6650200884938626
aF-0.6736960949664503
aF-0.6831484615223418
aF-0.6467865715216954
aF-0.646440536146478
aF-0.5769983621967194
aF-0.5753249811555281
aF-0.5643782457560245
aF-0.5522304761636048
aF-0.6030096821312667
aF-0.6038867168628337
aF-0.6047654942871721
aF-0.6056454100834006
aF-0.5801869860557756
aF-0.575594665881582
aF-0.5709934818964553
aF-0.566377445038952
aF-0.5669679039867441
aF-0.5634463040647248
aF-0.5599226584070371
aF-0.5563939054644398
aF-0.5769223503156753
aF-0.5781344782045985
aF-0.5795530717768842
aF-0.5809752734983595
aF-0.5866344216764565
aF-0.5889090240715347
aF-0.5911906081417948
aF-0.5934713160802674
aF-0.578659435157483
aF-0.5774545101557416
aF-0.5762491165258905
aF-0.5750416841221999
aF-0.5785261939262356
aF-0.5782793169852991
aF-0.5780324459788573
aF-0.5777850438351764
aF-0.5405006423187806
aF-0.5327641490069168
aF-0.524977400607137
aF-0.5252919419984479
aF-0.5211107613767614
aF-0.515720206705562
aF-0.5102901632679213
aF-0.5049045212045038
aF-0.4813556096348428
aF-0.4750101225109531
aF-0.46654168382455286
aF-0.48890744193855085
aF-0.48847565978027285
aF-0.4849718526984024
aF-0.4843185587224852
aF-0.4859512864256246
aF-0.48567796173623234
aF-0.48537205803747874
aF-0.48495761576509455
aF-0.4669544709676421
aF-0.46484511529756833
aF-0.45992252641090703
aF-0.4556685429197862
aF-0.45913153729763945
aF-0.45785042911732843
aF-0.45473063647311607
aF-0.45237005873470304
aF-0.5576740348318121
aF-0.5727801804331416
aF-0.5954509527950527
aF-0.6171725706776945
aF-0.5574284512879837
aF-0.5596985040492322
aF-0.5620077462514854
aF-0.564346639606101
aF-0.5221576160892751
aF-0.517858347496265
aF-0.5101853291797758
aF-0.5006852161018425
aF-0.4899911740136993
aF-0.4836998016290699
aF-0.4753671203322942
aF-0.4669862304358703
aF-0.5376247351377459
aF-0.5478670479042083
aF-0.5584945447704439
aF-0.5691225911147093
aF-0.6260636290792174
aF-0.6427840620631637
aF-0.6480373751225978
aF-0.6659051783722401
aF-0.6719643805399529
aF-0.6788047033198503
aF-0.6924627213721428
aF-0.7060842082677459
aF-0.633294563434212
aF-0.6302845909482202
aF-0.6285576903343828
aF-0.6214421532669911
aF-0.5670944367702764
aF-0.5586670841116046
aF-0.5427277216523105
aF-0.5268026434900905
aF-0.5136626604958536
aF-0.5054104432390236
aF-0.4951751713776136
aF-0.48185473330307094
aF-0.46680618686063413
aF-0.46046989704708396
aF-0.4481969870717908
aF-0.4358790896504692
aF-0.42440828004327935
aF-0.4148387555927755
aF-0.4032297115145651
aF-0.39162643128606733
aF-0.4556837110023171
aF-0.46173415506114157
aF-0.4674621535813661
aF-0.4748133962987744
aF-0.48687278467046546
aF-0.5010954319619656
aF-0.5016078228216387
aF-0.5050362254723448
aF-0.4796772284946793
aF-0.4794356532234061
aF-0.4791807107664745
aF-0.47894551953376574
aF-0.4084895292119435
aF-0.37954238765885595
aF-0.37717718086636065
aF-0.3702418872269009
aF-0.3563845314566838
aF-0.33964231177992676
aF-0.3250096989480675
aF-0.3059637210220081
aF-0.29159869973468666
aF-0.2772788557451258
aF-0.24631722939456724
aF-0.23183022151524435
aF-0.2293308882710039
aF-0.22163923914064076
aF-0.21289945611866878
aF-0.190440233233931
aF-0.24247457291477081
aF-0.24178564675668435
aF-0.2465063231549407
aF-0.25123545771966027
aF-0.24747381616128505
aF-0.2512642092194781
aF-0.2566244933957589
aF-0.2559414518771841
aF-0.195949225310728
aF-0.17367842006927647
aF-0.16507505042385784
aF-0.1564431113376834
aF-0.11915665249852836
aF-0.10798093026508715
aF-0.09365592251599608
aF-0.0737212682152073
aF-0.018899971332317023
aF0.003965937747535175
aF0.02684568756637873
aF0.04982947207896782
aF0.009698929696975611
aF0.019221567995598043
aF0.028623714067060657
aF0.05063626694919776
aF-0.006513728615637593
aF-0.011153367071957465
aF-0.015463553128940877
aF-0.01995075436912197
aF-0.023027375476498246
aF-0.027204800573018773
aF-0.031378575201261416
aF-0.0355602368504182
aF-0.01125685631399298
aF-0.009533083061133762
aF-0.007801358786333701
aF-0.006069046315829052
aF0.047141646992783226
aF0.05951399412600766
aF0.07192708793075164
aF0.08434008247442071
aF0.12769544539839162
aF0.13682947895302933
aF0.1541999133241445
aF0.1715264869548947
aF0.16411940145597548
aF0.17620810328282577
aF0.18836734879465622
aF0.2005101357316703
aF0.15846613179337377
aF0.15954759035316224
aF0.16063591803372557
aF0.15641357546388868
aF0.1562479583579619
aF0.15596743079644648
aF0.15568609508927445
aF0.14660924804901088
aF0.1447106514270513
aF0.1422823816480916
aF0.13985199247652025
aF0.17700973801173392
aF0.1817059425033789
aF0.1890189162249376
aF0.19611274908490062
aF0.215785712776579
aF0.22299698626684838
aF0.23275598694392485
aF0.2424800418352997
aF0.24758103746436122
aF0.2544793419299993
aF0.26269864309214563
aF0.2709344188969527
aF0.28110115099869404
aF0.2891597225761724
aF0.2977559329777173
aF0.30634936124518175
aF0.3145496453561214
aF0.32113033462810003
aF0.3675597554789598
aF0.3756681818307306
aF0.37080757380061424
aF0.3803256142346876
aF0.38437231367554103
aF0.3889012237020628
aF0.3840313269858102
aF0.5051749290529055
aF0.5072941220619374
aF0.5091322120670632
aF0.5138349807625371
aF0.5162270590021412
aF0.5188600512766524
aF0.5229395333924161
aF0.5923339167108419
aF0.594338448191086
aF0.6032814441438252
aF0.6191877795395122
aF0.6219530391622641
aF0.6314083404885302
aF0.6429673585685038
aF0.6543684106309322
aF0.6475763431770747
aF0.6525250094410131
aF0.6590667427309538
aF0.6698612951754623
aF0.6219424950128287
aF0.6180027941430195
aF0.6128748298475415
aF0.6077396833567992
aF0.6368056431194784
aF0.6393866387761848
aF0.6421887834405258
aF0.645121609199288
aF0.6855623589304356
aF0.6919688721528132
aF0.7028324646376198
aF0.713257554688465
aF0.717619381958388
aF0.7268237222544625
aF0.736034327466137
aF0.7454067886149858
aF0.7416288466047436
aF0.7478456643252325
aF0.7522378178426758
aF0.7584724408888968
aF0.7166460971345323
aF0.7119646960565142
aF0.7072432638342443
aF0.7025287107869516
aF0.7610881409669692
aF0.770232989580975
aF0.7798261049191004
aF0.7894354698779562
aF0.7898420809236413
aF0.7945925999443699
aF0.8013508716222284
aF0.8087800312996718
aF0.8115759130694458
aF0.8175734180164027
aF0.8235781127746753
aF0.8298901419089582
aF0.8453667373044071
aF0.8493126919479561
aF0.8568015276862369
aF0.8642054337893512
aF0.8687569838874243
aF0.8756247925477547
aF0.8822999633448187
aF0.8891226403264421
aF0.8853829598811531
aF0.8875711055013724
aF0.8911318528909407
aF0.895010429908369
aF0.8917865942749739
aF0.8934254097871093
aF0.8956260126573365
aF0.8978252079581175
aF0.9073573517968496
aF0.9111814869988093
aF0.9150218389703757
aF0.9188727617595953
aF0.9544282364157728
aF0.9650718947734753
aF0.9759618255259692
aF0.9870381327945195
aF0.998513400187031
aF0.9996236405787724
aF1.0001047977909527
aF1.0214497566890426
aF1.004238035897285
aF1.004300221342202
aF1.0084608987595978
aF1.0112696692826195
aF1.006800393325225
aF1.0089165385625671
aF1.0108780203828598
aF1.0130809141373662
aF1.0185712075496083
aF1.020377066775339
aF1.0231354232403227
aF1.0258862365696944
aF1.0335022935524991
aF1.036807329272679
aF1.0405186410880924
aF1.0439873645578164
aF1.0568559123301449
aF1.0611378220478822
aF1.0666192866813464
aF1.0730542338595086
aF1.0798642787646475
aF1.0847679791816014
aF1.0899431094231646
aF1.0935984565142611
aF1.1008615529530332
aF1.1048736247589583
aF1.1095317344216413
aF1.1146342774012838
aF1.1208149256332924
aF1.1251494892331677
aF1.1291035742943842
aF1.134508189649674
aF1.139494458926916
aF1.1439642083983932
aF1.148333602038098
aF1.1533772664297577
aF1.157542008606729
aF1.1645516476260762
aF1.167211565137252
aF1.1716738578751853
aF1.1672394187607154
aF1.1700196640265075
aF1.172814768908422
aF1.1755258836914457
aF1.17626538656571
aF1.178584606043573
aF1.1808924765689666
aF1.1832262153018736
aF1.1895291967563253
aF1.1927235609103004
aF1.1962584229973503
aF1.1990765157234295
aF1.215364651622859
aF1.2213307609099493
aF1.2273318621105065
aF1.2332891696039159
aF1.234844568894565
aF1.2398947705542476
aF1.2452653139501892
aF1.250061930745709
aF1.2414497951988133
aF1.2436269344165192
aF1.2458091362809949
aF1.243420371331676
aF1.2436027219465577
aF1.2445895053659286
aF1.2454116103345787
aF1.2462395929032812
aF1.2595033854137596
aF1.2605205679332934
aF1.2635560669430945
aF1.2652009429325588
aF1.2658029470953855
aF1.2671629955691688
aF1.269252876335273
aF1.2793388773697507
aF1.2801258678923735
aF1.2835566583447724
aF1.2869840888132376
aF1.2793720903155648
aF1.2798729697291895
aF1.2805275800346405
aF1.2811800417200057
aF1.291648498035363
aF1.2939192176039942
aF1.296835592874333
aF1.2997533461289508
aF1.301870687360879
aF1.3024416660512217
aF1.3047207079841665
aF1.307003974860113
aF1.311582808634269
aF1.3138058466073121
aF1.3158913197420259
aF1.318067882554916
aF1.304717062082862
aF1.3041083792400179
aF1.3032662140348328
aF1.3021643160061802
aF1.3124843839592377
aF1.3136829239812164
aF1.315230119345919
aF1.3167843111804642
aF1.3224256133785581
aF1.3235879149763687
aF1.3258559277608728
aF1.328124139966977
aF1.3387479324533165
aF1.3417920443305102
aF1.345674442549592
aF1.3497420848665924
aF1.344661532781664
aF1.3465379009229506
aF1.348417092059155
aF1.350286380189249
aF1.3459812960232145
aF1.3460119589867587
aF1.3463690143787086
aF1.3467253559163495
aF1.3472455619510746
aF1.3476717807596459
aF1.3487037231409569
aF1.3490911901260554
aF1.367488802163134
aF1.3679411219833408
aF1.371697939001212
aF1.3708312034677488
aF1.3680586514814554
aF1.3704479341086238
aF1.3745748035020533
aF1.3767202477373583
aF1.3633411536985198
aF1.3621851983300255
aF1.3608737699920397
aF1.359557340264355
aF1.363720586967967
aF1.3634117931254672
aF1.3630375540349688
aF1.3626623349141886
aF1.374638532693465
aF1.3773625858628962
aF1.3793944698544318
aF1.3817628762473118
aF1.3908330386800256
aF1.3937421245103603
aF1.3974125257819345
aF1.4011100436184085
aF1.4062168322983473
aF1.408274764484907
aF1.4119111383049558
aF1.4155630675871187
aF1.3973200168003075
aF1.3963867291384409
aF1.3952463311797896
aF1.3940753518463724
aF1.389622528064371
aF1.3877382629444641
aF1.3858442240554885
aF1.3858463558266068
aF1.4014639944830338
aF1.4033967086899808
aF1.4053514917374312
aF1.4073135866083262
aF1.4293833921158101
aF1.4338480925642147
aF1.4398645691209642
aF1.4459293847542205
aF1.4271805642034274
aF1.4278677372519946
aF1.4284962224322566
aF1.4291307218731317
aF1.4278770224004393
aF1.4280721170391661
aF1.4286032303936818
aF1.4288246445737114
aF1.4358164581710575
aF1.4375321132724155
aF1.4391836621940923
aF1.4408567728791448
aF1.4352321214911434
aF1.4353245872939482
aF1.4354171249925693
aF1.4355100343999743
aF1.4418584599728126
aF1.443411912595434
aF1.4447596751054705
aF1.4461967813296885
aF1.4339307975612892
aF1.4324509280881657
aF1.4309669124571824
aF1.4294808237472694
aF1.4394245701618367
aF1.440299112268141
aF1.4422062639917783
aF1.4431454470917338
aF1.4585561748486064
aF1.4617417963504877
aF1.4655693822937206
aF1.4693993667820369
aF1.460794200718322
aF1.4621231075800223
aF1.4632804335327005
aF1.4645244486472428
aF1.4601427084862424
aF1.460195831203487
aF1.4602656650520904
aF1.4603354176933543
aF1.4519608857937358
aF1.450742805789087
aF1.4491279821064262
aF1.4474914817336355
aF1.4572114726385736
aF1.4578442587834974
aF1.4585492100420252
aF1.4592503061820192
aF1.455125293669707
aF1.4551084837888606
aF1.4550337215587135
aF1.4548462240554807
aF1.4556542432195725
aF1.455648133059869
aF1.4556420059397546
aF1.4556358799715738
aF1.4683676693579315
aF1.470927874129476
aF1.4735040369760801
aF1.4760818893800174
aF1.4719856199108916
aF1.473210604481502
aF1.4744401675788055
aF1.4756869481003303
aF1.4693097651772966
aF1.4690372746569906
aF1.468719609431079
aF1.4657745831520268
aF1.4652632532162064
aF1.464377767061607
aF1.4634911182376387
aF1.4697264454283223
aF1.4700787944757856
aF1.4708789926053845
aF1.4716792227798257
aF1.4696283858899788
aF1.4696498452904914
aF1.4696966068048045
aF1.469767662942636
aF1.4698389094633546
aF1.477796518889769
aF1.4793666970054966
aF1.4810120462322942
aF1.4793583854884638
aF1.47974276974686
aF1.4804468108994584
aF1.481150750580837
aF1.478512990726868
aF1.478414802530331
aF1.4782685577250563
aF1.4781224672715654
aF1.4818854306200953
aF1.4825630596378527
aF1.4833781376487103
aF1.4841941358147297
aF1.4711939527189637
aF1.4697263491164545
aF1.4682199197212267
aF1.465532102852106
aF1.4594180903663991
aF1.456947345409807
aF1.4546060309554312
aF1.4515205524115942
aF1.4634787529191557
aF1.4638767542513618
aF1.469639226293038
aF1.4701284781647606
aF1.4914295766911416
aF1.4991096104097221
aF1.501608201919113
aF1.5066223458767358
aF1.506309331946631
aF1.5067734313827064
aF1.5094522989930272
aF1.5123319783593736
aF1.4798628926222257
aF1.477097117859243
aF1.4720557207878056
aF1.4669701075210302
aF1.4692882718087632
aF1.468252880074536
aF1.4658033676118518
aF1.4630868818954421
aF1.4521704750545754
aF1.448783557152399
aF1.4443535235625276
aF1.4399083648840523
aF1.4506030748776486
aF1.4499204607299627
aF1.4491566172933523
aF1.4483981608596328
aF1.4443754330494403
aF1.4438655256105126
aF1.442913019353584
aF1.4416329124157632
aF1.4548583640539428
aF1.4562536581451755
aF1.4582514297195952
aF1.4602484344074065
aF1.4591178942470555
aF1.4600061276948613
aF1.4611960154322081
aF1.462417768958121
aF1.4687384491164166
aF1.469162533619334
aF1.4704737551957137
aF1.472989854727797
aF1.4280643602744032
aF1.419138754052332
aF1.4099630628093047
aF1.401085387444188
aF1.4253899384876298
aF1.424918482528856
aF1.4238017659595936
aF1.42244543090795
aF1.4023621017405805
aF1.3995073925270471
aF1.394499489636849
aF1.3894537991162705
aF1.4402885103981706
aF1.4425388425245087
aF1.449275018663922
aF1.45599809910071
aF1.4549112964884214
aF1.45882347563981
aF1.4635878050697269
aF1.4685111205506924
aF1.4378361109265159
aF1.4347634829602969
aF1.4316585313467458
aF1.428524692903621
aF1.428659241047603
aF1.4268375690310533
aF1.4241117783024952
aF1.4222532712760998
aF1.4324444949287791
aF1.4325131577411234
aF1.4328316652778863
aF1.4332198676301102
aF1.4391347117837165
aF1.440153177183591
aF1.4417557712918425
aF1.443932911028833
aF1.4272800687091962
aF1.4270725927021113
aF1.4269794878357134
aF1.4253983551331917
aF1.4202411517809024
aF1.4179883202731514
aF1.4168762059406257
aF1.414682765484283
aF1.4212403556326443
aF1.42109386899301
aF1.4208542187535267
aF1.4206153716237697
aF1.4184032432527696
aF1.4183383050015896
aF1.4177307465204647
aF1.4172464914282594
aF1.4313295478917452
aF1.4320505666934427
aF1.4342809323006955
aF1.4365731683513676
aF1.4364501345769662
aF1.4376289880072868
aF1.438286485665091
aF1.4397983853933196
aF1.439383633721664
aF1.4399869170566566
aF1.4409832269167442
aF1.441992905080589
aF1.4261441003844428
aF1.4243552276692908
aF1.4217420128346214
aF1.4193152689406672
aF1.416124338522864
aF1.4155489034486122
aF1.4132531526808032
aF1.4109642169515713
aF1.4130722377673868
aF1.412045361173595
aF1.4107574543873325
aF1.4093704281793773
aF1.4222175712007186
aF1.4234954845189325
aF1.4251706272911093
aF1.4267888880212167
aF1.4371203801230834
aF1.4406296547193236
aF1.4441127794571935
aF1.4476152506106237
aF1.4422062981716968
aF1.4438223471116158
aF1.44544263322853
aF1.447061992867905
aF1.4319292255046987
aF1.4299352903637974
aF1.4280514817670067
aF1.4261023484777136
aF1.4125026084243384
aF1.4084998421251713
aF1.404180773362575
aF1.3998574720311039
aF1.405275481129042
aF1.4036792975835475
aF1.4035453005424303
aF1.4144327393255107
aF1.415221200723761
aF1.4137308848968915
aF1.415054185472258
aF1.4192647498004987
aF1.4198788733444236
aF1.4169554066878307
aF1.4111853264029888
aF1.411162633910168
aF1.4109200788346508
aF1.4106550887365774
aF1.4105629922532161
aF1.406330112088706
aF1.4061179667293144
aF1.405273750798436
aF1.3909063521644094
aF1.3884870136629837
aF1.387546128984114
aF1.3844325990629494
aF1.377190038915772
aF1.3761781862241524
aF1.374180178995235
aF1.3707540866377301
aF1.3760417624611456
aF1.3755456083644404
aF1.3745323616992984
aF1.3735181123582114
aF1.3875926582775815
aF1.3891101245274218
aF1.3916208408657589
aF1.3941350820383471
aF1.404083613579088
aF1.40617945071154
aF1.4097626586125713
aF1.413602952627956
aF1.394404010688437
aF1.3931253100706074
aF1.3916318682391542
aF1.3901108704914313
aF1.386605732105679
aF1.385393163171201
aF1.3834114139612583
aF1.3816553567985141
aF1.3795146826099374
aF1.379032612986904
aF1.3773856235321822
aF1.375739042315295
aF1.372149975290466
aF1.370075865709881
aF1.3697286946202754
aF1.3673038318294397
aF1.3625899783377022
aF1.3614943575747445
aF1.3590002775958219
aF1.3565331794853002
aF1.3711352704072182
aF1.3727617572985968
aF1.3743937952730647
aF1.3760310325014125
aF1.3765024535441839
aF1.377695677351758
aF1.3790230282599403
aF1.3799547347681553
aF1.3722597799249856
aF1.3715943801519463
aF1.3707949134283455
aF1.3699969386753743
aF1.3671479012491794
aF1.3659452619055
aF1.3646722841795036
aF1.3634023633171823
aF1.3609168689720983
aF1.3594786837852268
aF1.3579405344340945
aF1.3564039394393985
aF1.3464340100200394
aF1.3430607967082535
aF1.3413120835065486
aF1.3381315890758794
aF1.350252139389799
aF1.3505852295250773
aF1.3510627085035023
aF1.3513759728997718
aF1.3555379472016615
aF1.356679399268542
aF1.35792628660672
aF1.3593386417390945
aF1.358296207101858
aF1.358608745285259
aF1.3592557359966784
aF1.3599296901435207
aF1.3438132044767017
aF1.341391330591549
aF1.3381497957961028
aF1.3349225964471736
aF1.3423638872408108
aF1.341535599322484
aF1.3408131558606127
aF1.3400445539196935
aF1.354629197479286
aF1.3570305911983467
aF1.3597165525886141
aF1.3623845354122008
aF1.3485063445438619
aF1.3474154596397843
aF1.3463047341176542
aF1.3452321697486433
aF1.3369073773187474
aF1.3341493044846113
aF1.331430251091556
aF1.3286904693066153
aF1.332690574440012
aF1.3315119610083639
aF1.330302848836539
aF1.329094380424824
aF1.3316462173394847
aF1.3315676716503115
aF1.3312747521302284
aF1.3309691568496658
aF1.3464162880409831
aF1.3496211191059335
aF1.3528430517514853
aF1.3561525866333475
aF1.3413687011990256
aF1.3405779244617384
aF1.3397832236837925
aF1.33899126274977
aF1.3443679461664586
aF1.3449355752704233
aF1.345512769141021
aF1.3460890198768616
aF1.3294415650897284
aF1.326356966808842
aF1.323185147633421
aF1.3199363060118405
aF1.316525189444405
aF1.3152968324216237
aF1.3124545867486117
aF1.3095835027298754
aF1.3134869096657034
aF1.3124277568700964
aF1.3108627208276622
aF1.3097453747029668
aF1.315526769780071
aF1.3157443616334863
aF1.3159588480739606
aF1.3161735819473912
aF1.3181194914894063
aF1.3185634009812706
aF1.3191316066690368
aF1.3196938066715296
aF1.3291211439848554
aF1.3315990438187026
aF1.3340907704647385
aF1.3365820401902568
aF1.3323545583707923
aF1.3333873496903998
aF1.3344261735193332
aF1.3355105440383395
aF1.3393441061840687
aF1.3409797726430752
aF1.3426297625010535
aF1.3442673672181784
aF1.3119431375092008
aF1.3060186639768951
aF1.3007905037504321
aF1.2952311712125475
aF1.3171776301279121
aF1.317422685501335
aF1.3176796879733477
aF1.3179238330534488
aF1.3063593776689983
aF1.3041799925141846
aF1.3019462008238727
aF1.299707188033942
aF1.316603785184983
aF1.3183899558371812
aF1.3201862333704217
aF1.321977116741461
aF1.31601712825739
aF1.31619254730622
aF1.3163687296282363
aF1.316544933778177
aF1.3217850574380257
aF1.3229225438836676
aF1.3241368092577388
aF1.3256922749705873
aF1.3036676552940634
aF1.3031300839266735
aF1.3020847935523587
aF1.2993536567871793
aF1.3009188942975647
aF1.300423723294156
aF1.29892319754501
aF1.297567892613027
aF1.297549549692563
aF1.296354843576113
aF1.2952334304937096
aF1.2931209012053317
aF1.2919995824578883
aF1.2906426505466126
aF1.289281486125156
aF1.311838340150516
aF1.3128261241096957
aF1.319808153835278
aF1.322982060817183
aF1.3178702110020142
aF1.3188525241847282
aF1.320420492601075
aF1.3179214895978943
aF1.2949610714706994
aF1.2913225111810638
aF1.286874565698798
aF1.2825202213555458
aF1.276807294849287
aF1.2750185349515268
aF1.271185877513708
aF1.2673615488181666
aF1.2918220776848464
aF1.2944636606459308
aF1.2975699295521546
aF1.3007670284325652
aF1.2938754904162373
aF1.2943050184555438
aF1.2949553163684566
aF1.2956087710040838
aF1.3020576721776447
aF1.303073794507426
aF1.304929216377487
aF1.3073068062784525
aF1.3070465380461131
aF1.307501976586933
aF1.3086384693511008
aF1.30981923158099
aF1.2948948064761856
aF1.2942637649496818
aF1.292143543508581
aF1.289983689760732
aF1.2879939398364284
aF1.2862080271850478
aF1.2842520634098848
aF1.2822687059820046
aF1.2866341948902846
aF1.2865691421277918
aF1.2861384621280418
aF1.2857130490045998
aF1.288543993714916
aF1.288669610976596
aF1.2889198825406614
aF1.2891977496715028
aF1.2894531429170293
aF1.289725849627339
aF1.2900009425623171
aF1.290273101041604
aF1.287859197121049
aF1.2875541579124996
aF1.2872209660391394
aF1.2868988991881256
aF1.2818584275974265
aF1.2804832505213697
aF1.2791153607056263
aF1.2775820671559814
aF1.2824095324781073
aF1.2823686617791665
aF1.282302486228589
aF1.2822609905001632
aF1.2893503818413419
aF1.2910612722863637
aF1.2924717699872144
aF1.2940383295914812
aF1.289263616542959
aF1.2894388415043583
aF1.2896147648087646
aF1.2897909007135633
aF1.2785020532872204
aF1.2761944497192177
aF1.2738877718772477
aF1.2715719015757738
aF1.2744241545991217
aF1.273223787687475
aF1.271592764468545
aF1.2708371663661975
aF1.2779160748596072
aF1.278486237179496
aF1.2790664252575508
aF1.2796487134193595
aF1.2768192139685426
aF1.2766928882069335
aF1.2765475174714505
aF1.2764037225407225
aF1.2550858404046883
aF1.2500257961626877
aF1.246548958485739
aF1.2421908778266468
aF1.2599765007543473
aF1.2603196179213887
aF1.2606647462420155
aF1.2610108953335906
aF1.2636978210517156
aF1.264535184210542
aF1.2653764393016163
aF1.266241448947238
aF1.262735823305337
aF1.2626784520551544
aF1.2626193217473793
aF1.2625602478711158
aF1.255773617037966
aF1.2546137518059823
aF1.2534557270249946
aF1.2522903543828279
aF1.2631096502747896
aF1.2643818696328268
aF1.2656757210287708
aF1.2669995065718633
aF1.2518442637226297
aF1.2514502254316096
aF1.2495556616667316
aF1.2543001812659211
aF1.2542718432076878
aF1.2542555027095514
aF1.2541370183693799
aF1.2457304482433655
aF1.2455352745201873
aF1.2437223409835494
aF1.2419200757584106
aF1.2265346584349772
aF1.2243672252436246
aF1.2207395240180032
aF1.216305146529435
aF1.2201617329176577
aF1.2199565364613623
aF1.2186755346046931
aF1.216621170169291
aF1.2230883537829582
aF1.223120249201636
aF1.2232341147561754
aF1.2233710374047422
aF1.229635517162385
aF1.2322941859917544
aF1.2004444451655458
aF1.2011078836842395
aF1.2007653361596184
aF1.1982374705375936
aF1.1956323618241345
aF1.1859920814188878
aF1.1820277494065534
aF1.1780448280918092
aF1.2023368054685455
aF1.2026863816385696
aF1.2040928182063109
aF1.2069991795500994
aF1.2108849126828147
aF1.2114044180312216
aF1.2120503698838845
aF1.214174850692312
aF1.2086550867623473
aF1.2087642565252428
aF1.208943168660284
aF1.2091108946799376
aF1.2128469119243048
aF1.2132960152403491
aF1.214229718023665
aF1.215165248694297
aF1.216218726791416
aF1.2166706482476943
aF1.2173781731108617
aF1.218216784375051
aF1.2102835367510396
aF1.2093692124826685
aF1.2078577385836047
aF1.2069396009625368
aF1.201524680215071
aF1.2003873268059273
aF1.1983666751084945
aF1.1963487141764748
aF1.2053197716634854
aF1.2054166638020245
aF1.2059413562561074
aF1.2064662416179948
aF1.1918070366270204
aF1.1903555771424275
aF1.187575264945452
aF1.1847829188932275
aF1.1987252202978533
aF1.1999071724340125
aF1.2008029712717514
aF1.202214233634848
aF1.2003531426485354
aF1.2005400645824942
aF1.2009875305708908
aF1.201472844486699
aF1.2143703664797671
aF1.21662505948082
aF1.2204521759903724
aF1.224195615125999
aF1.2031397275739844
aF1.2027607796379387
aF1.2003277839036333
aF1.1983831680494053
aF1.194955155592761
aF1.1934483421331317
aF1.1913114897601398
aF1.1806210772902004
aF1.1867656986866297
aF1.1866480378277675
aF1.1864426581165448
aF1.1862373063692928
aF1.187077607264373
aF1.1872157810145691
aF1.1874276523450544
aF1.1876428548671858
aF1.1856998235645322
aF1.1894358668422136
aF1.1891805551875239
aF1.1889257560797244
aF1.1868505515646808
aF1.186181341877437
aF1.1855086211243577
aF1.1855107375076224
aF1.187952364710752
aF1.1879953633698563
aF1.1880386533654126
aF1.1880820892026072
aF1.188523538764676
aF1.1886564932302934
aF1.188789833943313
aF1.1889231826586957
aF1.182221467147818
aF1.181141876867358
aF1.1797850866708726
aF1.1784439364423451
aF1.1727233343510348
aF1.170413198925886
aF1.1680834890032323
aF1.1657290244685554
aF1.1840615763360165
aF1.1853895546326192
aF1.1875081925068671
aF1.1896199639043545
aF1.1837152258360923
aF1.1839479805638131
aF1.18404996477154
aF1.1842246463396444
aF1.1821895539449034
aF1.1818872965121594
aF1.1815813924844374
aF1.181274488128575
aF1.179260906438671
aF1.1785786292951386
aF1.1779292445564193
aF1.1772481770230812
aF1.1761761614412825
aF1.1752643438166972
aF1.1747681036791615
aF1.1740360002420323
aF1.1784348005568237
aF1.1788104153252021
aF1.1791912406723943
aF1.18002217476994
aF1.1716566177903251
aF1.1701641122683615
aF1.1686429382897625
aF1.1670533566168482
aF1.1754264863225998
aF1.1760490364949456
aF1.1766730537808385
aF1.177296562068154
aF1.1815357611421824
aF1.182927680473365
aF1.1843238235210762
aF1.1857350384496765
aF1.172032512867193
aF1.1702799313601862
aF1.168424037592862
aF1.1665659344547619
aF1.1592036495218787
aF1.1561837479856942
aF1.1531511594230848
aF1.1501106521124411
aF1.160337135952676
aF1.1601720333549483
aF1.1599919136185415
aF1.1598115902550177
aF1.1709731450683671
aF1.1724563360537168
aF1.1741306912842413
aF1.1758109610923881
aF1.1604909264914989
aF1.158677643986164
aF1.156482170029479
aF1.154934219766523
aF1.1557864282753139
aF1.1545719177283988
aF1.1532537077810057
aF1.1519375648612247
aF1.1545038540079977
aF1.154020155091886
aF1.153525644852583
aF1.1530236640008207
aF1.1606743166737576
aF1.161904606246054
aF1.1634464650789091
aF1.1644625061142353
aF1.1586461624769742
aF1.1583995180389763
aF1.1581497576168074
aF1.1578996983879444
aF1.1575725637246297
aF1.1573122892170344
aF1.1570471102067827
aF1.1567770044440255
aF1.148439160224405
aF1.1465065411431805
aF1.1445622134597544
aF1.142619254112307
aF1.1281813166131798
aF1.1236835894397306
aF1.119147895227198
aF1.1146315194842416
aF1.1331723223692594
aF1.1334788618979328
aF1.1338053319238517
aF1.134131619280729
aF1.14388795601855
aF1.1461470847227577
aF1.1484192409700666
aF1.150695324571612
aF1.1343113182388098
aF1.1329816489375029
aF1.131467745494957
aF1.129782538539903
aF1.126081926029734
aF1.1244981722741292
aF1.1225598775241217
aF1.1205945510268611
aF1.1103567834864343
aF1.10727315464759
aF1.1034022199826419
aF1.0999488220799138
aF1.1380616597216253
aF1.143137770517754
aF1.1482310920070677
aF1.1185022469762327
aF1.1156314858198622
aF1.111822927846302
aF1.1079893511837753
aF1.104279091928822
aF1.1011936246931633
aF1.0975469778139502
aF1.0938986538997844
aF1.0759151426787108
aF1.074320951137751
aF1.0689138947255348
aF1.0629447425083045
aF1.068880264047241
aF1.0665745602306291
aF1.0636595627391063
aF1.0607451478020113
aF1.0672311606432734
aF1.0669969856413708
aF1.066480402700936
aF1.065963251073419
aF1.0880310530154667
aF1.08985116363446
aF1.093411398423764
aF1.0976382496463168
aF1.0650621924843788
aF1.0635117959815474
aF1.0594030308358242
aF1.0553142775903206
aF1.0272308669130013
aF1.0176749465729245
aF1.0078798224574754
aF0.9971696713795959
aF0.9972123749651765
aF0.9899123688559737
aF0.983695050832087
aF0.9763520218620103
aF0.9776357272962031
aF0.9763121321859956
aF0.9717707991538997
aF0.9672109219138889
aF0.9769017836319982
aF0.9761659603788901
aF0.9750300237798424
aF0.9739100461176706
aF0.972710251683865
aF0.9716281300129692
aF0.9713167068888993
aF0.9701691220614546
aF0.9592959636634495
aF0.9575621268453363
aF0.9545153296031508
aF0.9512533942225394
aF0.9413367606955925
aF0.9366145552997098
aF0.9318722503293877
aF0.9255956142089756
aF0.9057905414212266
aF0.9020217812764573
aF0.900647311161638
aF0.8933581092378295
aF0.9058702075620877
aF0.9028472365983466
aF0.8997137714904744
aF0.8966828981179962
aF0.88844436512061
aF0.8829216973735052
aF0.877937330503725
aF0.8726744238226565
aF0.8557961743800733
aF0.8480734450368934
aF0.8403261558756951
aF0.8325587413080586
aF0.8215867088361573
aF0.8138666172456888
aF0.8061173849282572
aF0.7983605264205784
aF0.7887526052168399
aF0.7812804899772523
aF0.7737951821791276
aF0.7662062046147864
aF0.7835617792201064
aF0.7813245536370945
aF0.7790362313277552
aF0.7767402472556193
aF0.7587562508985868
aF0.7559155879187585
aF0.7507469203719119
aF0.7452938657378732
aF0.7528990566075922
aF0.750176430066364
aF0.7474448934564459
aF0.7279813708548724
aF0.7136206148504507
aF0.6820907092323201
aF0.6797112976860089
aF0.6764907830849096
aF0.6668881866800498
aF0.6567046304888629
aF0.6477207324780507
aF0.638022447225365
aF0.6285448791347004
aF0.6316431058555296
aF0.628927136963489
aF0.6266878814048034
aF0.6214865615024014
aF0.6266686309968184
aF0.6260592195109811
aF0.6237890858129354
aF0.6214580351840486
aF0.600979981863413
aF0.597036425719748
aF0.5909415081522211
aF0.5848123760914317
aF0.5722343932817222
aF0.5673834725358842
aF0.5650494612631749
aF0.559680213170195
aF0.5477074671557847
aF0.5403658081750993
aF0.5328501958754681
aF0.5253500207315587
aF0.5235578239049103
aF0.5220373172479795
aF0.5192592507639229
aF0.5143802245605511
aF0.49657371912217974
aF0.49417072195082
aF0.48734412865233034
aF0.4804929139205849
aF0.4714022727420306
aF0.46438349091716846
aF0.45712298165746246
aF0.4497582961223272
aF0.4428746762221798
aF0.4399439995589316
aF0.43342691677777045
aF0.4270768773728242
aF0.439757397149132
aF0.4376576140970605
aF0.43555545864641987
aF0.43345152810323606
aF0.41981577353820354
aF0.41562312036450644
aF0.4110366408144661
aF0.40617264554413657
aF0.3824611128573543
aF0.3735656289284752
aF0.36691188270206165
aF0.3584365518437105
aF0.33824202370946566
aF0.32655046639837604
aF0.31552281845769414
aF0.30671732042919064
aF0.30614309614631274
aF0.29721088597916623
aF0.28816290601978256
aF0.27910115688323156
aF0.2741326816773668
aF0.27265118931093646
aF0.2643693028453171
aF0.2563224378981497
aF0.30250892651583117
aF0.3028548605001835
aF0.30459801081578286
aF0.307499568459511
aF0.30427120069617475
aF0.30587737549110505
aF0.30752154246664976
aF0.3092431990620188
aF0.26675762348116816
aF0.25906067189250326
aF0.2512378470736838
aF0.24378993028453522
aF0.20008910940699565
aF0.18481867928276152
aF0.16953079107773927
aF0.154169272651286
aF0.1908291836463345
aF0.18687167807812965
aF0.18256034019147505
aF0.17825920159959585
aF0.1747046240430934
aF0.17152577276906955
aF0.1665868819908436
aF0.16278726342017524
aF0.15885444260571546
aF0.15738657959965963
aF0.1539692179235459
aF0.15042181675886557
aF0.15034328984747258
aF0.14809861077271158
aF0.1453622127170373
aF0.1425940125370353
aF0.1372676569653022
aF0.13401114201749298
aF0.13063868311992088
aF0.12746277769374537
aF0.11839370436867735
aF0.11611776493246406
aF0.1119644401510902
aF0.10796703721987555
aF0.09847457881560295
aF0.09364880563787992
aF0.08848875222472952
aF0.08342034606471582
aF0.052780855615838895
aF0.04253733137967419
aF0.03202500193263447
aF0.016727817332513162
aF0.00899942131915843
aF-0.002330172843258538
aF-0.012660090568123117
aF0.011910706113607006
aF0.011646143917727336
aF0.009945347850725206
aF0.008236082181217519
aF0.019660657443884233
aF0.020847620987567872
aF0.022341990902295272
aF0.02385720142013703
aF0.0023086546550965537
aF-0.0009444681967361035
aF-0.005066751022292593
aF-0.008953647367433426
aF-0.02926523226541633
aF-0.03547186023746729
aF-0.042757800148570446
aF-0.05035296048668236
aF-0.06975953586141159
aF-0.07307298586217215
aF-0.08207625163656562
aF-0.09130492562871773
aF-0.10787649899757046
aF-0.11085527495198821
aF-0.11372195775321625
aF-0.12055895996014332
aF-0.09737351042806708
aF-0.09756600141361371
aF-0.0980943366822622
aF-0.09862817888957753
aF-0.07417604599130279
aF-0.07384351571031367
aF-0.07048429101330278
aF-0.06708969110586871
aF-0.1116455335259845
aF-0.11897640813692245
aF-0.12630534659152204
aF-0.13363563448841909
aF-0.14353019608160622
aF-0.15152184883662745
aF-0.15936770325281113
aF-0.16730255970173413
aF-0.1743181694080409
aF-0.17809739309239614
aF-0.18560828360690707
aF-0.19205347711679632
aF-0.19055168208651185
aF-0.19372596446028734
aF-0.1984170397055136
aF-0.20305350011112555
aF-0.21200551259993894
aF-0.21489692701765417
aF-0.2195238611025907
aF-0.22349988947320742
aF-0.22318186234753146
aF-0.22623182803189312
aF-0.23008985990443698
aF-0.23085452214270097
aF-0.21924309731451563
aF-0.21942146531464646
aF-0.21926686003028362
aF-0.21944385138003053
aF-0.24883485383607562
aF-0.2526234787285113
aF-0.2581726204172061
aF-0.25859490998879053
aF-0.26325882359912267
aF-0.2678296678191532
aF-0.27297827056277013
aF-0.27847893167156235
aF-0.2978615559362128
aF-0.3038014453188076
aF-0.3118499057489581
aF-0.319926826198369
aF-0.322362821425616
aF-0.3296377688082601
aF-0.3359716903219945
aF-0.3427995595473621
aF-0.3569009436993915
aF-0.3653250672637207
aF-0.3737064067370315
aF-0.3850698747764114
aF-0.3750781042961404
aF-0.37798852528682536
aF-0.3826760112671508
aF-0.38715041424355245
aF-0.39521416955073896
aF-0.4006121653059438
aF-0.4058683654358175
aF-0.4112462150127536
aF-0.40527570706877203
aF-0.4081615510223955
aF-0.41107882165761467
aF-0.4142926692104867
aF-0.4344070878396886
aF-0.4409320611334504
aF-0.44754783501178963
aF-0.45420102246297844
aF-0.4556086562095052
aF-0.4612766783841096
aF-0.466549881308457
aF-0.4720271816215318
aF-0.4769083120481348
aF-0.48218762850771224
aF-0.4875233935115082
aF-0.49291159180174304
aF-0.4511869027776063
aF-0.44639051373968286
aF-0.44156176639340217
aF-0.43679214405591527
aF-0.4850280642257889
aF-0.49101945580930906
aF-0.49725389958736077
aF-0.5036368378226985
aF-0.5160323130208875
aF-0.5208325813556556
aF-0.5278231390934813
aF-0.5353178307041464
aF-0.5308299728025441
aF-0.5352975178883099
aF-0.540012038992228
aF-0.5446616799030846
aF-0.5571213396469696
aF-0.5633961744952023
aF-0.5696231596059951
aF-0.5758895118863601
aF-0.5726999636229433
aF-0.5769449510787377
aF-0.5812513722552559
aF-0.5855427965789852
aF-0.5875765748769641
aF-0.5908654412984369
aF-0.5960800082382711
aF-0.5983473940111468
aF-0.5884886505451732
aF-0.5894458130163684
aF-0.5904071357762843
aF-0.5913689045560657
aF-0.6318417782404406
aF-0.6407352355725369
aF-0.6498093853020475
aF-0.6724999092429202
aF-0.676715867598169
aF-0.687575414909297
aF-0.6984633283791837
aF-0.709305934186613
aF-0.695001307091756
aF-0.6979335244244327
aF-0.7032198551495856
aF-0.7086010342006954
aF-0.6916019069817736
aF-0.6924192456803295
aF-0.6932396855174234
aF-0.6926921639663401
aF-0.6929108673391582
aF-0.6933343780704737
aF-0.693763897247929
aF-0.7588390010467618
aF-0.7700756733313012
aF-0.7839168260947638
aF-0.7988953343987619
aF-0.7618850493202798
aF-0.76336650912189
aF-0.7653162203995931
aF-0.7673901838458645
aF-0.7585888721742187
aF-0.7582391583894044
aF-0.7576966100648503
aF-0.7571523349999767
aF-0.7653185451274416
aF-0.7663748631725031
aF-0.7678545898249478
aF-0.7693156281949971
aF-0.7986322659812588
aF-0.803231345290425
aF-0.8107780213933209
aF-0.8182603200635432
aF-0.8203095421860125
aF-0.8250212253053961
aF-0.8309520594822848
aF-0.8368701472782627
aF-0.8441528958839362
aF-0.8498010887720024
aF-0.8556087228410263
aF-0.8617516602053064
aF-0.8674170333801516
aF-0.8731033373722132
aF-0.8790400498952282
aF-0.8849945961599905
aF-0.8835616258430772
aF-0.8872735016175195
aF-0.891399585854761
aF-0.8955305297148151
aF-0.9006240315290119
aF-0.9049734594786987
aF-0.9093628820481756
aF-0.9136425499172338
aF-0.9107825934805311
aF-0.915726753420389
aF-0.9209517106810092
aF-0.9261530822179167
aF-0.9457244057840022
aF-0.9479908778972472
aF-0.9559152767675627
aF-0.9638529192996286
aF-0.9794309179201734
aF-0.9996452487006997
aF-1.0091871987727203
aF-1.0183746002814469
aF-1.0186222783273537
aF-1.0254009260445933
aF-1.0322512084177795
aF-1.0390422298951938
aF-1.0410028750851668
aF-1.0466196776137204
aF-1.051745314802913
aF-1.0573698300243048
aF-1.0671837921827176
aF-1.0734821676404493
aF-1.066712348866194
aF-1.0727592235621288
aF-1.0691239896402416
aF-1.07120930509793
aF-1.0751167093171858
aF-1.0789725494149316
aF-1.0792126459714666
aF-1.0818541014878642
aF-1.0847558568558906
aF-1.087566770273643
aF-1.0931973453576331
aF-1.096562323744429
aF-1.0994205135495534
aF-1.1027004798501654
aF-1.1225388033773251
aF-1.129691616457606
aF-1.1368644250664444
aF-1.1440164646807203
aF-1.1734486664060544
aF-1.184988491021583
aF-1.1969933327909708
aF-1.2089820517903975
aF-1.196567030177409
aF-1.203130289614161
aF-1.2098667879016851
aF-1.2164003484927859
aF-1.217869400995756
aF-1.2233697622554978
aF-1.2288650632840845
aF-1.2343755890081445
aF-1.2232117870190509
aF-1.2251293160290029
aF-1.2270660828943063
aF-1.2290381703392068
aF-1.2574169252145486
aF-1.2654889894303052
aF-1.2721942850258054
aF-1.2796253196865424
aF-1.2772308754870165
aF-1.281030884232587
aF-1.2862062025162562
aF-1.2913137320966106
aF-1.3206814437099963
aF-1.3309115980581545
aF-1.3420722220361299
aF-1.2811158284205573
aF-1.251891864906829
aF-1.25376845647568
aF-1.255801714019816
aF-1.2575691268859353
aF-1.267052816146054
aF-1.2704851037884688
aF-1.2739336793630565
aF-1.2773907307461507
aF-1.2713341213649723
aF-1.272802911244041
aF-1.2742901602863141
aF-1.2759352910660318
aF-1.3551979389266031
aF-1.3727674887076504
aF-1.3907021244259883
aF-1.3562989879463365
aF-1.3596348547350643
aF-1.3638612423523564
aF-1.3680748542377903
aF-1.286666462350834
aF-1.2806621142500183
aF-1.2771010725868615
aF-1.2683544441065142
aF-1.2428209844218219
aF-1.2408652394054287
aF-1.2279435463178712
aF-1.2149369151266636
aF-1.2792186739345914
aF-1.281507612500866
aF-1.286659597147676
aF-1.2917943349008865
aF-1.3785276422088724
aF-1.3958579581777353
aF-1.4240145265773108
aF-1.4409616353073846
aF-1.490610337078016
aF-1.5076918946486253
aF-1.5349110268348416
aF-1.562469189096387
aF-1.494555236795399
aF-1.4967946097653422
aF-1.5006775402545647
aF-1.504565119842662
aF-1.5008211165488947
aF-1.5022768233311887
aF-1.5042552332429229
aF-1.5062091480697375
aF-1.5597495392729717
aF-1.5634049822646934
aF-1.5759812008012903
aF-1.5876519683885584
aF-1.5706147511310937
aF-1.5759360222123804
aF-1.5812804106762646
aF-1.5866182185913131
aF-1.5668924965525117
aF-1.5664787006017433
aF-1.5660701923573765
aF-1.565628795632772
aF-1.6109486406093319
aF-1.6202034649068193
aF-1.630124316961759
aF-1.6400969562183856
aF-1.5950855048103665
aF-1.5925002004484212
aF-1.5899145955648852
aF-1.5873234258504705
aF-1.5826797298606672
aF-1.5806211574333733
aF-1.5777807807334807
aF-1.5749192661332523
aF-1.55005676184259
aF-1.5423054042615578
aF-1.533247652065763
aF-1.526712136437569
aF-1.5911906890743852
aF-1.5973147600611783
aF-1.6034598824652244
aF-1.6124698968252282
aF-1.685775393262758
aF-1.7082339260548594
aF-1.728365522872818
aF-1.7497773952221634
aF-1.7282097720470349
aF-1.7395443997791462
aF-1.76129523541585
aF-1.7830884775597529
aF-1.7177731974101835
aF-1.7206615652774415
aF-1.7235544154363112
aF-1.7264526361351935
aF-1.6430186953948756
aF-1.6271479667804867
aF-1.6440983615125089
aF-1.6278246333694972
aF-1.6899924856725979
aF-1.6907931122671358
aF-1.6908688188218854
aF-1.6919678151868958
aF-1.727709394640116
aF-1.736237549484268
aF-1.7448623290644063
aF-1.7790810716429712
aF-1.8234179691031027
aF-1.8398587131181703
aF-1.8560161640281958
aF-1.8725369520784838
aF-1.9331986067226508
aF-1.9589725551689279
aF-1.9847992248172792
aF-2.0149668135197008
aF-1.943781801210351
aF-1.9498966949001106
aF-1.9560044155361025
aF-1.9626019160453119
aF-1.914807059359358
aF-1.9095428001586265
aF-1.9042305433004758
aF-1.8993221893100207
aF-1.8672058091800192
aF-1.8563802805958485
aF-1.845502939418033
aF-1.8360442746489518
aF-1.884131295857407
aF-1.8855295501986529
aF-1.8869382801673114
aF-1.8883483209958989
aF-1.8902149495140828
aF-1.8923477544368001
aF-1.8932199496508595
aF-1.9342224359651157
aF-1.9367822708044384
aF-1.9465859800925651
aF-1.9562947764402798
aF-1.9937884225399785
aF-2.0032659806945325
aF-2.018527797711796
aF-2.0339029907132957
aF-2.073405027673628
aF-2.080213832155483
aF-2.0969472352416405
aF-2.1335352864208987
aF-2.1198301383329676
aF-2.1242836134519223
aF-2.1335850796890243
aF-2.14284376931586
aF-2.119450017656182
aF-2.119541319339805
aF-2.120311434962539
aF-2.121354796283474
aF-2.1152443686905933
aF-2.1150175076980817
aF-2.1143832916714462
aF-2.113789695519305
aF-2.1303506542328705
aF-2.1308429571338623
aF-2.1329212663030255
aF-2.135683867559429
aF-2.1816286922496655
aF-2.181727615023683
aF-2.1907219148924515
aF-2.200987645255317
aF-2.221318771781437
aF-2.2229874014851116
aF-2.2313381811795203
aF-2.241191856047095
aF-2.276831224207018
aF-2.2814019118456272
aF-2.2925162136760218
aF-2.2733420295951543
aF-2.2751276241821925
aF-2.279074553383656
aF-2.28321088451451
aF-2.245253698888771
aF-2.239846692708583
aF-2.2343347822108326
aF-2.2289485928426034
aF-2.2098739189938197
aF-2.2032538602534935
aF-2.195468082270925
aF-2.1872572031758217
aF-2.219893139540172
aF-2.2207398775624325
aF-2.221562918384201
aF-2.222586976270555
aF-2.301126063248744
aF-2.3162550947494207
aF-2.3283065358294444
aF-2.3453069931989923
aF-2.3569769151948314
aF-2.361774631124164
aF-2.373304030136598
aF-2.386257259148537
aF-2.3984949943471348
aF-2.4026397815823044
aF-2.4057377742121524
aF-2.4146162305789733
aF-2.3655173705223893
aF-2.3637100069835313
aF-2.360709254385058
aF-2.3576810683772056
aF-2.3527934458148145
aF-2.350954273951042
aF-2.3480567680918254
aF-2.344904959922536
aF-2.3676858871902624
aF-2.3701948171669436
aF-2.3728094390613723
aF-2.3753649677333835
aF-2.3861510712069602
aF-2.3874544273867757
aF-2.3892916161070152
aF-2.4539544045598793
aF-2.4605682538364464
aF-2.4752380484413408
aF-2.4897331000074088
aF-2.52798702034403
aF-2.539885785964878
aF-2.5581646869607813
aF-2.5765425837404408
aF-2.531508587173411
aF-2.5362425871712517
aF-2.5412891758355496
aF-2.5458429364190795
aF-2.5369855817211686
aF-2.5375578836227266
aF-2.538251232169622
aF-2.5393666114362414
aF-2.535092992139403
aF-2.535212609741837
aF-2.5354750085905193
aF-2.5357370694830026
aF-2.5729261639550005
aF-2.5799365550831146
aF-2.591305569207139
aF-2.596415955760953
aF-2.607904182968229
aF-2.612521908099516
aF-2.628140951599144
aF-2.635943306250239
aF-2.6345113040965713
aF-2.639626377829942
aF-2.739817039071992
aF-2.7455835277687926
aF-2.7241740182022043
aF-2.724212428840389
aF-2.7241916269542825
aF-2.7636429520552532
aF-2.765004961894946
aF-2.772832890996475
aF-2.7815576491377856
aF-2.853911642414361
aF-2.85534554803479
aF-2.8685855843823624
aF-2.8890888027542645
aF-2.8757004134518014
aF-2.8792016006606276
aF-2.8888873454910304
aF-2.8986351784293203
aF-2.9146131782515994
aF-2.9185572757056315
aF-2.926160845837164
aF-2.936696062995157
aF-2.9461482156551035
aF-2.8594247477070622
aF-2.858820809391296
aF-2.85382292512796
aF-2.8606666887738923
aF-2.8575999407095836
aF-2.853702555752342
aF-2.8501093676229647
aF-2.8916552365760495
aF-2.8973821743311534
aF-2.9012674771642866
aF-2.908088994541729
aF-2.935504821085156
aF-2.94438645895023
aF-2.9557326890913216
aF-2.9670862492476586
aF-2.98929307315878
aF-2.990526513812489
aF-3.0019990405522896
aF-3.0143422609866435
aF-3.009050145454483
aF-3.0154821769491087
aF-3.0229300597166735
aF-3.030333116342445
aF-3.002064297244614
aF-3.0012542885071336
aF-3.0002633793743123
aF-2.999256424667585
aF-3.01303912139382
aF-3.0136023840566097
aF-3.01573269933609
aF-3.0185665109466195
aF-3.0329995586471195
aF-3.0378102481596305
aF-3.043051986064149
aF-3.047209202902048
aF-3.0454400774146326
aF-3.046457120114734
aF-3.0494550440865003
aF-3.0524659908010876
aF-3.0667644952328854
aF-3.0725562802954305
aF-3.0793735219376646
aF-3.0861963536979737
aF-3.1083283223011517
aF-3.1139039980952874
aF-3.1230872853924363
aF-3.131652177086513
aF-3.1453013172907096
aF-3.151901445668113
aF-3.161303188888836
aF-3.1729487610804985
aF-3.1586362765397156
aF-3.1626920085695365
aF-3.1670616931915307
aF-3.171445325032154
aF-3.181345115678623
aF-3.186884752653867
aF-3.1920726032250504
aF-3.1978253142596453
aF-3.20749075160883
aF-3.21740362781765
aF-3.219018571913503
aF-3.2252856329432293
aF-3.2695648461141538
aF-3.2792401611712005
aF-3.2945576359043836
aF-3.306972283268891
aF-3.300459502229062
aF-3.306095446873509
aF-3.314694165867638
aF-3.323394877500185
aF-3.287640490122496
aF-3.286298302289855
aF-3.2849377039209537
aF-3.283580135958906
aF-3.293617102002729
aF-3.2943542424438057
aF-3.2955409349538733
aF-3.2966059075407745
aF-3.323517009256175
aF-3.3297983862260097
aF-3.338331999672709
aF-3.343517232594049
aF-3.377910608390536
aF-3.3835125236877994
aF-3.395276208775903
aF-3.406917952312522
aF-3.3801951709851137
aF-3.3808585841642467
aF-3.3835011785684994
aF-3.3869232556520315
aF-3.369751046157952
aF-3.3689562264956603
aF-3.3675169040727404
aF-3.3659725179259326
aF-3.3800202695242847
aF-3.380231978699074
aF-3.381718537148666
aF-3.3832580228919547
aF-3.4401917314185244
aF-3.4530382742115933
aF-3.4632670090674225
aF-3.4764719522632275
aF-3.476238023692771
aF-3.4808561758878573
aF-3.4900895339944533
aF-3.499254906607475
aF-3.5140923162689983
aF-3.524478611937032
aF-3.5349255604927867
aF-3.5453654544456334
aF-3.5532042805544544
aF-3.563039092802886
aF-3.572903381668765
aF-3.5827573714755374
aF-3.559119568382501
aF-3.5617317245699276
aF-3.565005752273265
aF-3.5672261862297594
aF-3.5461250431809423
aF-3.543429937688048
aF-3.541261868206889
aF-3.5388241537533274
aF-3.5500806081907177
aF-3.5505845714381055
aF-3.5510904328292847
aF-3.551599105011218
aF-3.559133276405059
aF-3.5610654991417867
aF-3.562982307210139
aF-3.5649567637606276
aF-3.5745917131285108
aF-3.5781872470852676
aF-3.581776204012497
aF-3.585376199411604
aF-3.6194446132974285
aF-3.6221787308930766
aF-3.628552459010227
aF-3.636944034317981
aF-3.6783286639793635
aF-3.691042548732171
aF-3.705933629119418
aF-3.7205651107776836
aF-3.7187036574606713
aF-3.730975721508165
aF-3.7405224106707644
aF-3.7517514255762796
aF-3.7533638906796174
aF-3.7625574020946404
aF-3.771809669200347
aF-3.7810264834694367
aF-3.7612161476872137
aF-3.7644495558879365
aF-3.7677264492776823
aF-3.739549247067859
aF-3.7386157857852673
aF-3.7346772129368855
aF-3.7307063965043277
aF-3.716065906536592
aF-3.712260327874346
aF-3.709178761591672
aF-3.7041542392673312
aF-3.7010582020781104
aF-3.700288809034218
aF-3.6974335762145154
aF-3.6935712531988836
aF-3.7074827786622864
aF-3.7076423306313098
aF-3.708140746621388
aF-3.7086375300403747
aF-3.703671592740715
aF-3.7030732845354644
aF-3.7027208445387316
aF-3.701992189491447
aF-3.7105415712989442
aF-3.7111271132571213
aF-3.71290041552996
aF-3.7138424935623657
aF-3.663676608850004
aF-3.6562779061142754
aF-3.6453442347669096
aF-3.63578489691296
aF-3.6757595219065022
aF-3.676554299313212
aF-3.6780147999450996
aF-3.6794570563447513
asS'yaw'
p5
(lp6
F-3.0684012311919817
aF-3.0680303292103948
aF-3.0690075591526487
aF-3.068992173305791
aF-3.068962445837964
aF-3.068025870183369
aF-3.070030428821547
aF-3.070501565426672
aF-3.070906537180339
aF-3.071357810078524
aF-3.0718957487252365
aF-3.072365169787432
aF-3.072835027886626
aF-3.0733336965196076
aF-3.070065351718286
aF-3.069659036317717
aF-3.069252332591463
aF-3.068847473006015
aF-3.0681007499887287
aF-3.067594949889556
aF-3.0671961327197477
aF-3.0667203927916824
aF-3.0670588119086912
aF-3.066775688112882
aF-3.0664905667767948
aF-3.0661898239716563
aF-3.0677349299674295
aF-3.0678754348729105
aF-3.0680173767404506
aF-3.068158290670959
aF-3.0690056449128154
aF-3.069172108868918
aF-3.069417826565743
aF-3.069692158998358
aF-3.071002714670882
aF-3.0714498316557677
aF-3.071953043175768
aF-3.0724844006433076
aF-3.0720324987789636
aF-3.0721267500157663
aF-3.0723982999551405
aF-3.0726597367076516
aF-3.068333853138893
aF-3.0677148401040544
aF-3.0670612532503116
aF-3.066325446426408
aF-3.067144375344709
aF-3.0667532009962524
aF-3.0663814536335567
aF-3.0659669400368665
aF-3.067800710534634
aF-3.0679100544540683
aF-3.0680269141772847
aF-3.0681447735208187
aF-3.0682116570205733
aF-3.0682974691212985
aF-3.0683875731334807
aF-3.0684880646407287
aF-3.0674804115598446
aF-3.067333044597334
aF-3.0671747617970584
aF-3.067004547365658
aF-3.0687715732307743
aF-3.069049103918628
aF-3.06932627645054
aF-3.069605224141652
aF-3.0696777974811065
aF-3.069751865973918
aF-3.069937141307638
aF-3.070040622853446
aF-3.0676328993849915
aF-3.067366463492507
aF-3.0669958099336316
aF-3.0666023947431493
aF-3.067484335797833
aF-3.0674019512188533
aF-3.067311394557724
aF-3.0672208948107986
aF-3.068783055770424
aF-3.06908635418345
aF-3.069355926931993
aF-3.0696342907251424
aF-3.0681291291716892
aF-3.0680112517563534
aF-3.06789339178834
aF-3.067768602403783
aF-3.068301818969945
aF-3.0683284290194583
aF-3.0683551105030564
aF-3.068381714795196
aF-3.0699858257349004
aF-3.0703443961472185
aF-3.0706891935733176
aF-3.0710620708894587
aF-3.0689774565579504
aF-3.0688029864395365
aF-3.0686275157741316
aF-3.068437930023688
aF-3.0671608223189346
aF-3.066791438625108
aF-3.0663775875430663
aF-3.065964259470466
aF-3.0654853189069144
aF-3.0651849351628617
aF-3.0648198002151257
aF-3.0644160194055807
aF-3.0644357414058643
aF-3.064129486161658
aF-3.063821856057684
aF-3.063487607585474
aF-3.063128305152274
aF-3.0628027634555393
aF-3.062463334032761
aF-3.0621558345655147
aF-3.0604538330576676
aF-3.0597889772829765
aF-3.0591982971926903
aF-3.058571237609101
aF-3.071531635520916
aF-3.0738772819524303
aF-3.0762310877597216
aF-3.0791953503941656
aF-3.077761522687435
aF-3.079405214737236
aF-3.0812838222116685
aF-3.083404073457592
aF-3.0744344520648825
aF-3.0743676423753596
aF-3.074087658173426
aF-3.0736946765770727
aF-3.061407952300253
aF-3.060229529888104
aF-3.059958938351544
aF-3.058246546300457
aF-3.0602684389749224
aF-3.0589506223035294
aF-3.0576277565058803
aF-3.0563098923008725
aF-3.056836050492744
aF-3.055857141088061
aF-3.054992014333774
aF-3.0540702139742213
aF-3.080253066017614
aF-3.080563841989834
aF-3.0839471290216194
aF-3.0881016681674835
aF-3.1025765466755897
aF-3.1035251705692684
aF-3.10731822276708
aF-3.112396205677102
aF-3.0934072264138748
aF-3.0933861160910885
aF-3.0933674944033145
aF-3.0933476165852714
aF-3.091518054665832
aF-3.091117272749615
aF-3.090715421648589
aF-3.090285771742507
aF-3.1011977190809987
aF-3.103243500515711
aF-3.1051475844130687
aF-3.107128462347337
aF-3.102261792699791
aF-3.1028551137295968
aF-3.1033574318559176
aF-3.1037123270899425
aF-3.112979900771755
aF-3.1153732330971575
aF-3.1161954491826704
aF-3.118756785161952
aF-3.116260447019999
aF-3.116497904698327
aF-3.1175599950066433
aF-3.118721466247004
aF-3.1287505750798927
aF-3.131633634308469
aF-3.1350560229321354
aF-3.1380877195031105
aF3.141089454101439
aF3.137832915279992
aF3.1337324276391567
aF3.1311581840716807
aF3.1253572569631367
aF3.1215366819307504
aF3.1176970526544108
aF3.1132337477843572
aF3.109500132506189
aF3.1053604388016898
aF3.101690398282303
aF3.0980533853702115
aF3.1048952066403177
aF3.1033414195912004
aF3.1017819663818558
aF3.1000727817406255
aF3.0915317406329144
aF3.0884966452555838
aF3.0854499875869412
aF3.0814166174454356
aF3.0800277275651773
aF3.0771787746611365
aF3.0746391262223653
aF3.0719522176924254
aF3.0644881966478317
aF3.0608160194385214
aF3.056902126061387
aF3.0530595901155615
aF3.0386037032453945
aF3.0360552608351843
aF3.0307142970620546
aF3.0253408294508803
aF3.032265756260355
aF3.0292936761600324
aF3.0268169927897666
aF3.0240196724719937
aF3.0307666349999094
aF3.0299452609545448
aF3.0291237159142703
aF3.0282620627027463
aF3.0151855135055
aF3.012012141306797
aF3.008683400031323
aF3.005363189969268
aF2.998354940187023
aF2.994021722084647
aF2.990152586691723
aF2.9860743282253397
aF2.9776216018327295
aF2.9726638345054734
aF2.9676874418968873
aF2.962305889722939
aF2.946363746607745
aF2.9390540339791253
aF2.9316531059072575
aF2.923717713604178
aF2.933207118780213
aF2.9292310983522905
aF2.9256931746534374
aF2.9218508735149604
aF2.910926894888963
aF2.9062661136718058
aF2.901089032106864
aF2.895495235010868
aF2.8850878260747312
aF2.8787505432298115
aF2.872398955120723
aF2.8660396680861577
aF2.8720721012752137
aF2.8680165297437514
aF2.8645308001667393
aF2.860736428846459
aF2.8494673381465745
aF2.8440625201045506
aF2.838707391640256
aF2.832871342124266
aF2.8384438992379333
aF2.8353385139536957
aF2.8320104138601816
aF2.829097355591859
aF2.8047756814916283
aF2.7971551524220013
aF2.7895186100496563
aF2.7818788283450817
aF2.771428620996096
aF2.7679261398130075
aF2.760523446241268
aF2.7526473139154555
aF2.745649516182402
aF2.738251427741678
aF2.7308329632224777
aF2.723406045744957
aF2.7302167091938583
aF2.7254925404291863
aF2.7214840324545837
aF2.717116828852572
aF2.6899770236182188
aF2.680885825232997
aF2.6522207182226736
aF2.6509067696131656
aF2.6423113287645
aF2.632772828822354
aF2.6678698660006575
aF2.6675717553737113
aF2.6672730523925336
aF2.6669739624702857
aF2.5987794262298887
aF2.5843863049354585
aF2.569965402933007
aF2.5554979494738697
aF2.546275715065712
aF2.5329456944198196
aF2.51960793022006
aF2.5062508338375427
aF2.4953077600958107
aF2.48466566650626
aF2.472210870523297
aF2.4597243961492126
aF2.4867298985988384
aF2.4823049096635312
aF2.4778663386465847
aF2.473429472047726
aF2.5509626422926903
aF2.563221003656481
aF2.575484132630463
aF2.5877680031663113
aF2.5260540008253587
aF2.5232013472351573
aF2.52034876221781
aF2.5174900399300166
aF2.4671295474185633
aF2.4546726069765796
aF2.442134748137614
aF2.460929136979976
aF2.4575636302326895
aF2.4536218912524292
aF2.449251759005931
aF2.4449173612576005
aF2.4401934257023172
aF2.4369114034350243
aF2.432531345009985
aF2.4447036939513875
aF2.444574230853117
aF2.44429147743746
aF2.444095453079967
aF2.439649144276097
aF2.438544637812419
aF2.4373084794057727
aF2.43608412192775
aF2.468920466181387
aF2.472175080728799
aF2.4800919875606264
aF2.4866258049464167
aF2.462075307742406
aF2.4611046761532918
aF2.461888718614532
aF2.4606871449015832
aF2.4396076586375126
aF2.4357108401060685
aF2.429862631820941
aF2.4243194708384195
aF2.413109131374378
aF2.40862686071259
aF2.40210051298825
aF2.395490365595537
aF2.427086548075774
aF2.4284481600228003
aF2.4308782648612066
aF2.4338870248828632
aF2.471537978273623
aF2.479401295010636
aF2.4898159562799664
aF2.5002908714120964
aF2.44084010519642
aF2.434714774002635
aF2.428359086615334
aF2.4220030706172007
aF2.3948624695539795
aF2.386154013269952
aF2.3834179449415585
aF2.3741119070153576
aF2.3814623981782925
aF2.379051061495821
aF2.374236364733828
aF2.369434545860937
aF2.3560587433952755
aF2.35323693056931
aF2.351617982115804
aF2.3449472521161643
aF2.360694818733952
aF2.3604097318862354
aF2.3598705231000157
aF2.3593317975337804
aF2.3834594368952318
aF2.3863419232082204
aF2.389917087328605
aF2.3945698950817094
aF2.418351216737279
aF2.42260466669989
aF2.4308432747831095
aF2.439112082218988
aF2.4444052916075907
aF2.4503794868455397
aF2.45762694163892
aF2.464870798096387
aF2.4386053720358825
aF2.437990882447482
aF2.437409140773841
aF2.4366625406784213
aF2.4186985251718105
aF2.4100991303391774
aF2.409789325053238
aF2.40771642066108
aF2.443073460381759
aF2.447833677561035
aF2.452857293831093
aF2.4574917141525883
aF2.48788427311307
aF2.5067637087835157
aF2.508306305637313
aF2.5128295304911976
aF2.520333483677371
aF2.5315573715818167
aF2.540755669020787
aF2.552799776017645
aF2.5739823502961054
aF2.585677045403577
aF2.609343791186759
aF2.6211856505640885
aF2.606948226530861
aF2.6118110284009233
aF2.6173364797706977
aF2.6232815677553507
aF2.5938289000659203
aF2.592430463015657
aF2.590210135283266
aF2.587985829328267
aF2.591272652186087
aF2.59034786410079
aF2.5890400506724918
aF2.5879834157703616
aF2.634304044902356
aF2.6421267116349543
aF2.6510872057217156
aF2.6600774551619617
aF2.7139179670585336
aF2.7280144230798653
aF2.746083218771302
aF2.7629072072425944
aF2.7731346742109633
aF2.789346940219863
aF2.8055690195163745
aF2.8218648609416177
aF2.781067065188611
aF2.785169744857406
aF2.7892205123359965
aF2.7911398341549436
aF2.763195696915582
aF2.7604779021767256
aF2.7579530931642466
aF2.7553245926813816
aF2.768232113192123
aF2.76885152182496
aF2.7694703891838035
aF2.7700904259924224
aF2.8006838341970854
aF2.8074994121075916
aF2.8143464273370244
aF2.8211957682166826
aF2.8671872360121555
aF2.8821038475472376
aF2.897069584948565
aF2.9120352026766483
aF2.91986109510081
aF2.9263782445190305
aF2.9387720807775426
aF2.9511346223186834
aF2.9343088918527966
aF2.9405448302677475
aF2.9468171585350915
aF2.953080996671699
aF2.9200625632879147
aF2.91832014315694
aF2.916566655663085
aF2.9313190806378833
aF2.9327005287494723
aF2.9350404698318586
aF2.93738715183202
aF2.961846604534028
aF2.967829486009401
aF2.9754814801769456
aF2.983140153001053
aF3.0143281010924268
aF3.022566195542043
aF3.035394633556816
aF3.0478386540874687
aF3.0360317660585916
aF3.0404375844796947
aF3.0463999689340695
aF3.0523410028202544
aF3.046686836490216
aF3.0490849413574033
aF3.051942273361232
aF3.0548053325580176
aF3.0529118150149275
aF3.054432102707467
aF3.0560538185103607
aF3.057675009450484
aF3.061322318653355
aF3.062977009309201
aF3.063376563228849
aF3.0654142496261256
aF3.0819060301329833
aF3.0822622448637618
aF3.0869480149599946
aF3.0921921482298305
aF3.0986110197230587
aF3.096818816970646
aF3.102116048808632
aF3.1067106227123484
aF3.10794356704676
aF3.1122043826106576
aF3.116894318866554
aF3.1182266629966557
aF3.141165412459563
aF-3.141042222102726
aF-3.136680443629419
aF-3.13164870034538
aF-3.1403062986620855
aF-3.1376394786700885
aF-3.1351795513974747
aF-3.1319647996059943
aF-3.1239512082487915
aF-3.1208368787619993
aF-3.116719989120835
aF-3.1114729010537894
aF-3.1216200038182436
aF-3.1205981516646677
aF-3.1192680960254315
aF-3.117936177518444
aF-3.0897743751272153
aF-3.0832228323606947
aF-3.0761099298036116
aF-3.0686653092226526
aF-3.0481938058830433
aF-3.0424354332786114
aF-3.032670899720525
aF-3.024266437006322
aF-3.0350146871208565
aF-3.030125889186079
aF-3.0252337637008773
aF-3.0202556699717893
aF-3.026089183612025
aF-3.0236592996584535
aF-3.0217939642524057
aF-3.0193597111290686
aF-3.0315782897323222
aF-3.0324744868505378
aF-3.033378347442897
aF-3.0342808911011407
aF-2.981584895034118
aF-2.970926046540883
aF-2.9597447173266844
aF-2.9485444482423193
aF-2.9404068440606657
aF-2.933766722943453
aF-2.9243202304048093
aF-2.9148227560685087
aF-2.9217061409370153
aF-2.9157626479513388
aF-2.909812029903907
aF-2.903556845253491
aF-2.905824346082475
aF-2.9038322946477444
aF-2.9000516769456928
aF-2.896313934597482
aF-2.9216952411337025
aF-2.924487304407588
aF-2.927201052001788
aF-2.9299747672830536
aF-2.8967677911346135
aF-2.894107198186241
aF-2.889777642004937
aF-2.8850616329025573
aF-2.8416600664219196
aF-2.832190832377671
aF-2.819475536810649
aF-2.8067683743156078
aF-2.8039973834068275
aF-2.7935434161984283
aF-2.7830451175088586
aF-2.7725179215718643
aF-2.780168777838187
aF-2.773874964160476
aF-2.7674355245602977
aF-2.760885876700277
aF-2.794937096233024
aF-2.7951881329594843
aF-2.7952969275343857
aF-2.8001232414102404
aF-2.778901403569849
aF-2.7788710846730775
aF-2.7768425207656433
aF-2.77547308739322
aF-2.7666808600072965
aF-2.763365341423799
aF-2.760292145259561
aF-2.756840711467752
aF-2.7409158068217083
aF-2.7370891240541884
aF-2.7312440642616926
aF-2.725414988653704
aF-2.713421613516641
aF-2.707206374638514
aF-2.7002271189096962
aF-2.693690437169565
aF-2.694630846910583
aF-2.6906456219990695
aF-2.685543956889604
aF-2.681676333162594
aF-2.680806965202491
aF-2.6772530292622743
aF-2.6735023757155747
aF-2.6733220466315046
aF-2.6604849572452793
aF-2.6564860215737554
aF-2.6490918795173197
aF-2.644002508295848
aF-2.6293304824963197
aF-2.6232874564044817
aF-2.6163595843190746
aF-2.608827324921717
aF-2.609229738810475
aF-2.604442561971992
aF-2.598667796125918
aF-2.593262850789269
aF-2.59490302850414
aF-2.58938959350517
aF-2.5872974340858312
aF-2.5839349526107136
aF-2.5641173472859173
aF-2.556743599477313
aF-2.5493304410946966
aF-2.542140040687879
aF-2.5244832659295815
aF-2.5148980966171255
aF-2.5053842165665112
aF-2.4957400838314765
aF-2.507452791466532
aF-2.502431939343635
aF-2.496875897841031
aF-2.492446463323162
aF-2.501490792034135
aF-2.4994902915344124
aF-2.4974780578704094
aF-2.49548050870661
aF-2.4857397234256835
aF-2.4821035031602716
aF-2.4783813403697144
aF-2.4749281487901573
aF-2.463782268934433
aF-2.4586048031135284
aF-2.453415297786652
aF-2.431949847009966
aF-2.43022289961601
aF-2.4216661947060087
aF-2.4138530444670323
aF-2.405984034485067
aF-2.393795705016072
aF-2.3911653036399847
aF-2.38331560054427
aF-2.3694303376121932
aF-2.367319126072133
aF-2.3625494746142226
aF-2.3552203219883707
aF-2.344111033837432
aF-2.3425182213958085
aF-2.3355745472852574
aF-2.328637673541497
aF-2.34367779697393
aF-2.342598303917095
aF-2.3411874907344297
aF-2.3397813082480985
aF-2.3399669639534304
aF-2.339219304694486
aF-2.3382590562324803
aF-2.3372983540540755
aF-2.3086484197724344
aF-2.306977410780374
aF-2.3003076354846668
aF-2.2936254955983553
aF-2.275482252736524
aF-2.2680694585331036
aF-2.261115378867417
aF-2.2538575576343094
aF-2.239715857265147
aF-2.235030816995919
aF-2.2285486597509534
aF-2.220067335367474
aF-2.213004467633689
aF-2.207055641499348
aF-2.19937630159272
aF-2.1916622354509268
aF-2.213390783611326
aF-2.213076184453357
aF-2.2124623034145534
aF-2.211848368398479
aF-2.212281532560656
aF-2.2120201279255207
aF-2.2116867377838814
aF-2.2113374403209005
aF-2.1919239881231096
aF-2.187094602195199
aF-2.182257950458605
aF-2.1774467870242824
aF-2.145621514354172
aF-2.1448315685181836
aF-2.1356330310163063
aF-2.126452883982079
aF-2.1209857585454284
aF-2.1120243870761186
aF-2.1060454449749666
aF-2.0979142782137097
aF-2.1180271081764066
aF-2.1178508202648025
aF-2.116386631881338
aF-2.112298687577716
aF-2.11793664687561
aF-2.118184912793265
aF-2.1187415255395368
aF-2.118888008044476
aF-2.095028901416897
aF-2.0904813973808203
aF-2.085322265962292
aF-2.0801434591821875
aF-2.073090049540045
aF-2.06875526560514
aF-2.0635017748483966
aF-2.0582345266297573
aF-2.0740108957622687
aF-2.0733435196530494
aF-2.07284572069381
aF-2.0722654758361587
aF-2.050635418732323
aF-2.046673647563603
aF-2.0416677712329574
aF-2.0366323481431374
aF-2.0457215197980143
aF-2.0447480702500833
aF-2.043027981281967
aF-2.0413005342202943
aF-2.043193956959748
aF-2.0424778784890973
aF-2.0416028916447075
aF-2.0407044407977737
aF-2.029347407020576
aF-2.0261485798674395
aF-2.0229331602520455
aF-2.019418919074841
aF-2.015680670426788
aF-2.0124235767095002
aF-2.0091292916260572
aF-2.005822684340957
aF-1.9994077446387226
aF-1.9966190283839194
aF-1.992861050404356
aF-1.989072879140842
aF-1.9901896317875634
aF-1.9870769046736922
aF-1.9844337775372363
aF-1.981765357114739
aF-1.97804188271063
aF-1.9755324482118282
aF-1.9733094104529243
aF-1.9704900100742913
aF-1.9778101068724112
aF-1.9771652561950603
aF-1.9765445006364517
aF-1.9759156408162657
aF-1.9765096095293542
aF-1.9761448781460131
aF-1.975779863169605
aF-1.9754133819877995
aF-1.95390878123136
aF-1.9486031875920269
aF-1.9440000989001416
aF-1.9390918696234838
aF-1.947782306096755
aF-1.945764134840535
aF-1.9437403092636
aF-1.9417136565263085
aF-1.9183031089330418
aF-1.9122312424097399
aF-1.9070794812283962
aF-1.9005912889934249
aF-1.9073523418715503
aF-1.9044008974903341
aF-1.900854679893829
aF-1.8973062400708587
aF-1.9161927454742427
aF-1.9173916776953834
aF-1.9184358105951502
aF-1.9195581539642717
aF-1.9119794784926514
aF-1.911479928982948
aF-1.9108232331917603
aF-1.910167301049153
aF-1.8884668727701208
aF-1.8848304146667922
aF-1.8800095173169908
aF-1.8751239063398621
aF-1.87657057328045
aF-1.8734667709973583
aF-1.8700090004010237
aF-1.8665701390772806
aF-1.8640815861540958
aF-1.8638960231108854
aF-1.8630707283291983
aF-1.8610009571266553
aF-1.8558714535071068
aF-1.852917633440587
aF-1.849955614242555
aF-1.8469941519219517
aF-1.8543631870945314
aF-1.8535032771606306
aF-1.8526380073010622
aF-1.851772169960662
aF-1.8308134804114393
aF-1.8259173012716798
aF-1.8210028220753978
aF-1.8160195260178003
aF-1.831267750187292
aF-1.8306066543254247
aF-1.8298359590143556
aF-1.8166138837853198
aF-1.8145737123496202
aF-1.8110406832175974
aF-1.8075030151143998
aF-1.8049383414865685
aF-1.80367144368195
aF-1.8007942704330138
aF-1.7979169819644143
aF-1.791383885426776
aF-1.7904781170809276
aF-1.788504385361578
aF-1.785505214886599
aF-1.7824980086422457
aF-1.7914636490692974
aF-1.790899999932614
aF-1.7903093665121526
aF-1.7555584832198654
aF-1.750944174433751
aF-1.742492571109053
aF-1.7340421858871642
aF-1.7303242815916817
aF-1.725843882409684
aF-1.7191706250424872
aF-1.7125044108599223
aF-1.7343125893062
aF-1.7347866300796684
aF-1.735356824390388
aF-1.735927662402976
aF-1.7402044466800424
aF-1.7410327108814894
aF-1.7426819430200926
aF-1.7441987466252098
aF-1.7316441608579196
aF-1.7301528263002002
aF-1.7294150156531558
aF-1.7275484285795495
aF-1.7132343187515835
aF-1.7095357838314185
aF-1.7027665517074453
aF-1.6980235514373099
aF-1.6857474476584227
aF-1.680170251170249
aF-1.6772406821059125
aF-1.6713616574765695
aF-1.6670617454929664
aF-1.6663055572932368
aF-1.6619406994242147
aF-1.6574086355990736
aF-1.670111812825714
aF-1.6698163694444363
aF-1.6692778413556408
aF-1.668734590039765
aF-1.6794360724069493
aF-1.6801350648643876
aF-1.6817887295395209
aF-1.683622627728717
aF-1.6774688102378705
aF-1.677395563131569
aF-1.6772997571065786
aF-1.6772036239791897
aF-1.6658086432095496
aF-1.6633441719065725
aF-1.6605864349978445
aF-1.6578481470180315
aF-1.6514107467726336
aF-1.6502082663881623
aF-1.6479620350085087
aF-1.64494324499833
aF-1.6340584052584393
aF-1.629834226789467
aF-1.625266236973679
aF-1.6207000006767973
aF-1.6282923256198734
aF-1.627108432507494
aF-1.6255224756847353
aF-1.6238940461452622
aF-1.6176606802537117
aF-1.6171866387708622
aF-1.6157209558323555
aF-1.614633282592944
aF-1.6468550978882386
aF-1.652679701795079
aF-1.6586675042739687
aF-1.6644608298284238
aF-1.6298508455833927
aF-1.6285359881392267
aF-1.6254215443257751
aF-1.6212394099178817
aF-1.633184445606443
aF-1.633372289931515
aF-1.633701817763623
aF-1.634033832080832
aF-1.604484157149371
aF-1.602598038811888
aF-1.5969521053994946
aF-1.5913171481646062
aF-1.5851143090957749
aF-1.5805661912817697
aF-1.5750274031247147
aF-1.569235020882198
aF-1.6058889268465755
aF-1.6096776943250704
aF-1.613506319145602
aF-1.6173705634689326
aF-1.615067740276014
aF-1.616951213690125
aF-1.6197694786264214
aF-1.6216910367018345
aF-1.5903265147286902
aF-1.58958079285137
aF-1.5861215981265233
aF-1.581905473313182
aF-1.5838161296050826
aF-1.5820235343569262
aF-1.579202817439568
aF-1.5753708459778173
aF-1.5899687209592306
aF-1.5900444999401322
aF-1.5900785057608253
aF-1.5906560020535623
aF-1.5878567507828907
aF-1.5877250601367956
aF-1.5876600508121193
aF-1.5875318319063236
aF-1.5857072582108918
aF-1.5854235828100773
aF-1.5849594935394755
aF-1.5844969595129148
aF-1.579830247589864
aF-1.579696380600479
aF-1.5784439288749306
aF-1.5774456609802656
aF-1.5769009468092545
aF-1.576621913992362
aF-1.5757587670166828
aF-1.5748716763046273
aF-1.5699952863510718
aF-1.5688298217763086
aF-1.568179791663614
aF-1.5666850633721037
aF-1.5648539542177655
aF-1.5639879202661942
aF-1.5625576832364672
aF-1.5611082555474673
aF-1.565614505497877
aF-1.5655203952202608
aF-1.5653829173708527
aF-1.5652552495162324
aF-1.5732659365058543
aF-1.5736202478584829
aF-1.5750338053495694
aF-1.576443166632179
aF-1.5579202565055925
aF-1.5556781588339565
aF-1.5528661239465875
aF-1.549837670235442
aF-1.5456620432423442
aF-1.5433423534538309
aF-1.540301606067027
aF-1.5373641119214687
aF-1.53688813627918
aF-1.5344222845787794
aF-1.5319748075227562
aF-1.5295137363775846
aF-1.5534178932360727
aF-1.5565144302732172
aF-1.5596190862324903
aF-1.562721966953439
aF-1.5557823159536697
aF-1.5567721007924764
aF-1.5577072190669223
aF-1.5586747643691647
aF-1.552779375422295
aF-1.552349376847518
aF-1.551885399369576
aF-1.5514209672064372
aF-1.5477281779924694
aF-1.5469343676806167
aF-1.5468677285818377
aF-1.5538096063167481
aF-1.5544645417105443
aF-1.5526147446862912
aF-1.5537471894903252
aF-1.5265447988497431
aF-1.5247327416130507
aF-1.5149277494656164
aF-1.5238160480405563
aF-1.5237350420870972
aF-1.522869187228191
aF-1.5219232455137586
aF-1.5193160653001554
aF-1.5344254818615923
aF-1.5348838548783053
aF-1.5367079145895488
aF-1.5253007467614104
aF-1.5245938372481438
aF-1.5243189189884676
aF-1.5234091728244585
aF-1.537434980149322
aF-1.538072941802384
aF-1.539332662713488
aF-1.54149277511131
aF-1.5389361673914075
aF-1.5394206597497386
aF-1.5404100907947051
aF-1.5414005009484524
aF-1.5254438041146479
aF-1.523657596303459
aF-1.5207022349333503
aF-1.5177427244848227
aF-1.5111293020344942
aF-1.5092687346046216
aF-1.506087762280059
aF-1.5026785632275534
aF-1.5042561326108244
aF-1.5027693592952238
aF-1.501032901650294
aF-1.4992644041358076
aF-1.5076078581036065
aF-1.5080247367030777
aF-1.5087060578318414
aF-1.5093097865187477
aF-1.511241923735016
aF-1.5114813349760792
aF-1.5122992827797426
aF-1.5131170278394
aF-1.4994074840198917
aF-1.4966972906383633
aF-1.4951504039431565
aF-1.49196497455437
aF-1.511706687725232
aF-1.512719694221969
aF-1.5150257104161198
aF-1.5173067792846031
aF-1.5185310859647727
aF-1.520564941598071
aF-1.522605738634754
aF-1.524653037126719
aF-1.498541747528024
aF-1.494392877300128
aF-1.4897776436532897
aF-1.4845977397428218
aF-1.493333917504335
aF-1.492188957359764
aF-1.4908133068523193
aF-1.4894402235938835
aF-1.490765046640522
aF-1.4900850534552639
aF-1.4893652897262522
aF-1.4886472544010871
aF-1.4806372372225851
aF-1.4783805045857725
aF-1.4759669128781985
aF-1.4735557601937275
aF-1.5055357932429825
aF-1.5109251422203154
aF-1.5137190437125
aF-1.5188004876720171
aF-1.4941571814622499
aF-1.49262709110742
aF-1.4904337329075004
aF-1.4889947145143505
aF-1.4802440918165716
aF-1.4771662107491899
aF-1.4738040275768085
aF-1.4699956669382077
aF-1.4947197438232593
aF-1.4959417401902881
aF-1.4984714160534114
aF-1.5011065165394524
aF-1.4892581107029488
aF-1.4885149365536494
aF-1.4875202419583622
aF-1.4865299463259332
aF-1.4924644228078379
aF-1.493108204876856
aF-1.4936697199446738
aF-1.4942671114275483
aF-1.4926637093650144
aF-1.4927477143125611
aF-1.4928416739343748
aF-1.4929350046345184
aF-1.4863349082267185
aF-1.4849241549560954
aF-1.4834877434178548
aF-1.4821006826143912
aF-1.4965199633970696
aF-1.498704282190366
aF-1.5008576986458402
aF-1.5030275314248396
aF-1.5036806668204403
aF-1.5054509349172946
aF-1.5072670118818208
aF-1.5090821219237323
aF-1.5035088584726766
aF-1.5035411135950765
aF-1.5036614022458465
aF-1.5037868962517429
aF-1.4850437301831638
aF-1.4809649427752107
aF-1.476864390191436
aF-1.4726523462712593
aF-1.498330631541233
aF-1.5008676902821356
aF-1.50341733857099
aF-1.505958196584859
aF-1.4977840450702293
aF-1.4979471519068372
aF-1.4981130071557756
aF-1.4982785913972447
aF-1.5023789270040036
aF-1.5033697558544923
aF-1.5043886016364594
aF-1.505432188423523
aF-1.5088603601382848
aF-1.5094475771988258
aF-1.5108063150238127
aF-1.5121788390431163
aF-1.5139203643491017
aF-1.5150238167398047
aF-1.5166543111969994
aF-1.5178183908818672
aF-1.517968508864343
aF-1.519101965803823
aF-1.5202192463479425
aF-1.5213378157941913
aF-1.513528001468368
aF-1.512913249312731
aF-1.5121263644233536
aF-1.5113477965626407
aF-1.5203073221296792
aF-1.5216302893161855
aF-1.5229606387295958
aF-1.5242907441901064
aF-1.4843621496117883
aF-1.4768187424547048
aF-1.469231274437357
aF-1.4613111378340542
aF-1.4833163615695548
aF-1.4819821960190385
aF-1.4806363472886355
aF-1.479300600757355
aF-1.5112293870537576
aF-1.517316779750373
aF-1.5226887109786493
aF-1.5284009215412635
aF-1.5089601411942843
aF-1.5093501826040634
aF-1.5097592395657633
aF-1.5101478321107997
aF-1.515792566531805
aF-1.5172561136651102
aF-1.5187561970338255
aF-1.5202597865865486
aF-1.5046793329419508
aF-1.5025925238707076
aF-1.500493906783797
aF-1.4984015917748017
aF-1.5043029714278673
aF-1.503877490456509
aF-1.5034501581570368
aF-1.50302277291368
aF-1.5078151918280138
aF-1.5084242708406044
aF-1.509074461933338
aF-1.5099073523155744
aF-1.5121618259694685
aF-1.51231734454229
aF-1.5126197454457955
aF-1.5134098591268186
aF-1.515980900172913
aF-1.5162938729825732
aF-1.5172422802124932
aF-1.5180989006316827
aF-1.521645198652771
aF-1.5231051054986515
aF-1.5244754497310267
aF-1.5118998654233131
aF-1.510293408216526
aF-1.5082778068151486
aF-1.5062559183971715
aF-1.5019929210246665
aF-1.5014510338759757
aF-1.502853586752812
aF-1.5011227891198886
aF-1.50259711718531
aF-1.501873553796339
aF-1.500718601830819
aF-1.495178677765703
aF-1.5121522514195456
aF-1.5148257657283581
aF-1.5178972243854556
aF-1.5210958871056122
aF-1.5155153617894503
aF-1.5161253556293381
aF-1.5174323490555657
aF-1.5187365022562884
aF-1.515392906473885
aF-1.515241901383418
aF-1.5154009622550686
aF-1.5155646742033981
aF-1.495097581850214
aF-1.49215609014614
aF-1.4877027233319602
aF-1.4832277386655575
aF-1.4778156441633366
aF-1.4754993614645582
aF-1.4712698691577788
aF-1.4679952060450647
aF-1.5033563009239952
aF-1.505135760805756
aF-1.5095761915082446
aF-1.5141895889914867
aF-1.5272730730397233
aF-1.5288472814257883
aF-1.534136426803268
aF-1.5395244396989978
aF-1.519067064174811
aF-1.5186349214357338
aF-1.5181616309068382
aF-1.5176817118521242
aF-1.5132886468396218
aF-1.5131124304719878
aF-1.5119457949247788
aF-1.5107934264090688
aF-1.5098758946889344
aF-1.5094422737875366
aF-1.5085783560444441
aF-1.5076191805765777
aF-1.5089227937280765
aF-1.5084754785714345
aF-1.508024249339997
aF-1.5075778334353216
aF-1.5108790871185496
aF-1.5112430400902503
aF-1.5116405829931217
aF-1.5120248522418862
aF-1.515731805091439
aF-1.5168590036433338
aF-1.517980229008637
aF-1.519237031713453
aF-1.5104102065409593
aF-1.5093557392183432
aF-1.508315104796395
aF-1.5072469376751987
aF-1.501274226108265
aF-1.4989136291278378
aF-1.4969674983143684
aF-1.4948060414646611
aF-1.4960868715457778
aF-1.4946911691719795
aF-1.4932899043544077
aF-1.4918869461315742
aF-1.5034897144176373
aF-1.5049088530024903
aF-1.5063274222809202
aF-1.5077516447721262
aF-1.4940727209813498
aF-1.4922315668919366
aF-1.4897298609216003
aF-1.48857090483693
aF-1.4890956288175545
aF-1.487788781875319
aF-1.4864589552815966
aF-1.485124315167344
aF-1.496055311681824
aF-1.4971529551676102
aF-1.4984160802720625
aF-1.49966551322218
aF-1.4869778595083014
aF-1.4851876624990028
aF-1.4839575893784107
aF-1.4824157406140406
aF-1.4792753685726465
aF-1.4774194906413216
aF-1.4755527346312698
aF-1.4736804573985676
aF-1.4906557868530264
aF-1.4927592629560449
aF-1.4948725156851201
aF-1.497045440418273
aF-1.502720763294585
aF-1.5054888695459427
aF-1.5083418485916558
aF-1.5111921048725574
aF-1.4929767684478987
aF-1.4917441017550523
aF-1.4905133910331083
aF-1.4892748712455162
aF-1.4785653012586746
aF-1.4754464275721222
aF-1.4722745224697305
aF-1.4690292331484331
aF-1.4517875740663244
aF-1.4506288204534918
aF-1.4450574517380002
aF-1.447993165069887
aF-1.4474129156298137
aF-1.4470783279591828
aF-1.4446522452871025
aF-1.475157515405548
aF-1.4756824864004794
aF-1.4805588473520268
aF-1.485406513077543
aF-1.4811488243427464
aF-1.482236408137908
aF-1.4840567314043476
aF-1.4862818320983093
aF-1.4648894355529483
aF-1.464578832198148
aF-1.4626397954264079
aF-1.4595301292209604
aF-1.460677943371526
aF-1.4602246089824593
aF-1.4586062207077783
aF-1.4566601184833021
aF-1.4614189125202006
aF-1.4611818413221593
aF-1.4765478714937976
aF-1.4678999982978598
aF-1.4678919357996056
aF-1.4678324377425664
aF-1.4677711216245446
aF-1.476174924017014
aF-1.4778213646457725
aF-1.4794755256628973
aF-1.4596803521382267
aF-1.4592623636707982
aF-1.4575806864974237
aF-1.4541055482355727
aF-1.4614460476986486
aF-1.4613643451373788
aF-1.46126275634525
aF-1.4609286394318328
aF-1.4611833846710531
aF-1.4610766633665873
aF-1.4609017638712514
aF-1.4607377996092117
aF-1.462058269165753
aF-1.4621431396564555
aF-1.4623195886173215
aF-1.4624963830080433
aF-1.4674522624690158
aF-1.4680841171375776
aF-1.469073344096609
aF-1.4702458497057669
aF-1.488014868011117
aF-1.4916995353082485
aF-1.4977906767544547
aF-1.5014907116147764
aF-1.486371336278895
aF-1.4863937582077629
aF-1.48643359359073
aF-1.4864733759276083
aF-1.4813995339408788
aF-1.4812153732750892
aF-1.48021810235986
aF-1.47922046478919
aF-1.4817243629582122
aF-1.4816513264292164
aF-1.4815114228668793
aF-1.4813709137685096
aF-1.4818982686127478
aF-1.481918533598889
aF-1.4819338923858287
aF-1.4819580889766668
aF-1.4890737721037612
aF-1.4896876229461886
aF-1.4911570993640666
aF-1.4927508682158557
aF-1.4958975363306533
aF-1.497156627078768
aF-1.499000429201724
aF-1.501090480679696
aF-1.5000057116053083
aF-1.500192180921138
aF-1.4998079390768067
aF-1.5007606436058991
aF-1.4982708654302783
aF-1.4983627254629723
aF-1.498492994626503
aF-1.4962421809961595
aF-1.5023967702188017
aF-1.5031905340203298
aF-1.504576066829703
aF-1.505961410988534
aF-1.4934541871737492
aF-1.4924526061960401
aF-1.4909168130802581
aF-1.489356873133527
aF-1.4947984267995305
aF-1.499085785549603
aF-1.4991470106467366
aF-1.4992081128323915
aF-1.5054115333979359
aF-1.5068764608215675
aF-1.5083490741121657
aF-1.510565724740548
aF-1.5053726349278702
aF-1.5053200953478676
aF-1.5052671997871179
aF-1.5052141260241008
aF-1.5018342499745734
aF-1.5010313737657937
aF-1.500226165112969
aF-1.499420908136027
aF-1.505973967088533
aF-1.506631216645087
aF-1.5074572242251085
aF-1.5082737102651613
aF-1.502909644988933
aF-1.5023480783306988
aF-1.5017817533431344
aF-1.5012094108015348
aF-1.5145054161566567
aF-1.515975401655274
aF-1.5183205958199133
aF-1.5206581892419122
aF-1.5232955870926486
aF-1.5261475764989203
aF-1.527397209032239
aF-1.5295376166045505
aF-1.531355569761447
aF-1.5334799409092574
aF-1.535629941604334
aF-1.537786972956099
aF-1.5331684624639765
aF-1.5338274195698263
aF-1.534542136457531
aF-1.5352000980402312
aF-1.5154287442833487
aF-1.510862321836796
aF-1.5083771295770465
aF-1.5047107236222064
aF-1.5015921530054903
aF-1.498040021767067
aF-1.4944386148842015
aF-1.4905905989110357
aF-1.513284831016621
aF-1.5153653880643887
aF-1.5174859090242623
aF-1.5197017905093948
aF-1.521466560242463
aF-1.523524836986857
aF-1.525587964305279
aF-1.5276494087714871
aF-1.5292508442227677
aF-1.5311935676193897
aF-1.5331421861226724
aF-1.5351118406838498
aF-1.5180532000818503
aF-1.5160254787073102
aF-1.5138782259571066
aF-1.5117284169843677
aF-1.5137936438324835
aF-1.5125619477826822
aF-1.5113250772064457
aF-1.510084976892233
aF-1.4954217332721462
aF-1.491714541044939
aF-1.487670155941568
aF-1.4836211986214787
aF-1.5005675185842076
aF-1.5006587196192476
aF-1.5007616752949913
aF-1.5008649946566033
aF-1.5142419766127364
aF-1.5169507055979674
aF-1.520230362201548
aF-1.5225427309210522
aF-1.5139705703628326
aF-1.5143771636238799
aF-1.5148184733207095
aF-1.5152590910190231
aF-1.5129690183999054
aF-1.5128363278814976
aF-1.5127006715510283
aF-1.5125629658476811
aF-1.495337724444128
aF-1.4915806603367512
aF-1.4872783933371414
aF-1.484178859816342
aF-1.490734119337527
aF-1.4891690257293078
aF-1.487584159500424
aF-1.4859973971799507
aF-1.4902560312209354
aF-1.4899052993704907
aF-1.4895479584775075
aF-1.4891839785592915
aF-1.4994835283915078
aF-1.5013291967762405
aF-1.503186046980055
aF-1.505041590410856
aF-1.49164855924336
aF-1.4903528592399755
aF-1.489046221736211
aF-1.4877451494746528
aF-1.4884747366976119
aF-1.4876615039361756
aF-1.4867953966453742
aF-1.4859297739656439
aF-1.4703733973192858
aF-1.4664995445031528
aF-1.462603352639033
aF-1.4587004263236014
aF-1.4645236958710932
aF-1.46290109183359
aF-1.4610536656834532
aF-1.4589971967504545
aF-1.4655166565868527
aF-1.4653975734672826
aF-1.4652518322593069
aF-1.4651040585227395
aF-1.46607625204362
aF-1.4661512039486146
aF-1.4662452924211034
aF-1.4663292320795416
aF-1.4777933786614315
aF-1.480242785751488
aF-1.4827004976236102
aF-1.4563590693843491
aF-1.4527395686490492
aF-1.4479376789637506
aF-1.443104245322623
aF-1.4591364800928726
aF-1.4596217336516195
aF-1.460195244319689
aF-1.4607690187362015
aF-1.4245502335673543
aF-1.422652131968604
aF-1.4162142967669615
aF-1.409107210149326
aF-1.3945713237507666
aF-1.387839347916796
aF-1.3793284140632718
aF-1.37081918109704
aF-1.3858709641580862
aF-1.3848035917076322
aF-1.3824490005065255
aF-1.3800918172229055
aF-1.3919934254658184
aF-1.3924168422250793
aF-1.3932450683015416
aF-1.3942283709798813
aF-1.38724741602039
aF-1.386934638305559
aF-1.3861057341054341
aF-1.38528086711541
aF-1.3455183703850748
aF-1.3356624004531927
aF-1.3255597159052643
aF-1.3145132731521982
aF-1.3120882308366275
aF-1.3039886463955426
aF-1.2970903381505574
aF-1.2889430185035922
aF-1.2962206418107556
aF-1.2950985719942363
aF-1.2912486841525734
aF-1.2873830755698688
aF-1.2701713670789054
aF-1.266013056646748
aF-1.259593611501291
aF-1.2532643540651962
aF-1.2610277023906171
aF-1.2580441904117745
aF-1.254255523666171
aF-1.2511022490251742
aF-1.2510936277544122
aF-1.249398204164967
aF-1.2471751784529426
aF-1.2447951821336385
aF-1.2212181211935553
aF-1.2141481572149762
aF-1.2070481006725726
aF-1.2028403949389885
aF-1.1847663287503516
aF-1.180313678266742
aF-1.174017353097267
aF-1.1653971280534952
aF-1.1537007710228475
aF-1.1445817125738045
aF-1.135153444210363
aF-1.1260338636349998
aF-1.1289986215785084
aF-1.1216763518181627
aF-1.1150677922458085
aF-1.1081386048935549
aF-1.1205408263143668
aF-1.1177311594489103
aF-1.1149125572830112
aF-1.1120866331348052
aF-1.0906572733251332
aF-1.084307025673501
aF-1.0779328079910997
aF-1.0715523173006447
aF-1.0471168729352842
aF-1.0372759268154217
aF-1.0274176057952027
aF-1.0173583328972866
aF-1.0072040157884814
aF-0.997528468005009
aF-0.987631937223261
aF-0.9777022708683224
aF-0.9684026032757764
aF-0.9610973250622815
aF-0.9519757002069916
aF-0.9423521912007998
aF-0.9483892928060904
aF-0.9420599195102848
aF-0.9357098327049388
aF-0.9296340851483341
aF-0.9167928818864789
aF-0.9028229329533737
aF-0.9013384347098201
aF-0.899329178145489
aF-0.893338185322636
aF-0.8732666734475153
aF-0.8646073201429862
aF-0.8552593869462763
aF-0.8461241974699465
aF-0.8550554801691553
aF-0.8530301350444668
aF-0.8513602833234096
aF-0.8474815688296081
aF-0.8217141097459923
aF-0.8197012111898669
aF-0.8122029133251188
aF-0.8045034055964474
aF-0.7801821689152565
aF-0.7732546705140685
aF-0.7625479555171897
aF-0.7517811371925708
aF-0.7295819387560295
aF-0.721045148979854
aF-0.7169376888471671
aF-0.7074887317053294
aF-0.703641183881174
aF-0.6946065204489691
aF-0.6853577896385712
aF-0.6761280558296219
aF-0.6793011960335092
aF-0.6777334119290028
aF-0.674868966413349
aF-0.6698382355761958
aF-0.6893178324926587
aF-0.6894803584750828
aF-0.6899420730354101
aF-0.6904054528588836
aF-0.6540448713175997
aF-0.6465410255760919
aF-0.6387787467577577
aF-0.6309050921023839
aF-0.5949736433485745
aF-0.5892287575017643
aF-0.5764535861218941
aF-0.5640058630545071
aF-0.5607962694669898
aF-0.5503411078067341
aF-0.5398741335877802
aF-0.529398320894056
aF-0.556549875010854
aF-0.5546899544558355
aF-0.5526553269212214
aF-0.5504975894676303
aF-0.5369055610048746
aF-0.5322753547623538
aF-0.5278578294818053
aF-0.5234473288084847
aF-0.4829907888754319
aF-0.4701836221696272
aF-0.45810371512291687
aF-0.4485120090283773
aF-0.4345424452519846
aF-0.42189054350752764
aF-0.40907466129139225
aF-0.3962392759205659
aF-0.40632821928019464
aF-0.39770425472883103
aF-0.38972686871619583
aF-0.38197586317638743
aF-0.41589823497462863
aF-0.41602100699035394
aF-0.4166396512624914
aF-0.41766941444499395
aF-0.4070638096493539
aF-0.40598217760006106
aF-0.4048036462732589
aF-0.4036444798270297
aF-0.3708130826219437
aF-0.36298029666751475
aF-0.35501941609564913
aF-0.34571627028560437
aF-0.3167317263774456
aF-0.30444597560459996
aF-0.2921461790172106
aF-0.2797871435909365
aF-0.3133497340012692
aF-0.3105971396142798
aF-0.30762337564257247
aF-0.30463181626878333
aF-0.3103607146493397
aF-0.3094554765407657
aF-0.3066661064989347
aF-0.30558464504099137
aF-0.2788306133255664
aF-0.2764529625045589
aF-0.27088039858090734
aF-0.26513445095980276
aF-0.24114259151442835
aF-0.2335946436473847
aF-0.22439324372347963
aF-0.21508490611783534
aF-0.22620118509712164
aF-0.2211829931866459
aF-0.21598613512535852
aF-0.21109216007119863
aF-0.24412931902883966
aF-0.2455369442761258
aF-0.24810569664686816
aF-0.2505780143193072
aF-0.23705222755424357
aF-0.2363909988272629
aF-0.23568396693333038
aF-0.23498949257044902
aF-0.23092407485291486
aF-0.22954716953222745
aF-0.2281341321815315
aF-0.21349950820205327
aF-0.2103145226885416
aF-0.20564543052259743
aF-0.20138831970003915
aF-0.1711231632802948
aF-0.16973752198403885
aF-0.16082962318504906
aF-0.15187736494552828
aF-0.1613984604785495
aF-0.15812119960509813
aF-0.15399517561888437
aF-0.1498116097700512
aF-0.1481656707606569
aF-0.14542664003109396
aF-0.1419558029771584
aF-0.13868315419724442
aF-0.1581565924921385
aF-0.15988279949824824
aF-0.16190918815522562
aF-0.16402157817557456
aF-0.16030438773185915
aF-0.16051302235049242
aF-0.16107992178185926
aF-0.16166101426202356
aF-0.14244428833657014
aF-0.14128675460289783
aF-0.14017277956854288
aF-0.13751596320745654
aF-0.11137944307279285
aF-0.10867506720948922
aF-0.10125229286910889
aF-0.09375214954459192
aF-0.09910377259501177
aF-0.0988301361034886
aF-0.09606585714040654
aF-0.09327246820141892
aF-0.1087613031968972
aF-0.10980436696442969
aF-0.11084715524852633
aF-0.1118901355362297
aF-0.11000242190071659
aF-0.11035516350473688
aF-0.11070146975158217
aF-0.11105170443735572
aF-0.1052974890736208
aF-0.10477067119773277
aF-0.10372366479711663
aF-0.10282521489360286
aF-0.07923433216521832
aF-0.07529093636400715
aF-0.06946323603777847
aF-0.06370338346542041
aF-0.04743299762779223
aF-0.04323680168322608
aF-0.03652191435194987
aF-0.030751660865613244
aF-0.044975079575046054
aF-0.043173925745534615
aF-0.04089556933082456
aF-0.038786746919452414
aF-0.038224625523157196
aF-0.03645351932876926
aF-0.03387843025207067
aF-0.032114549997532896
aF-0.03276365540150584
aF-0.0322918169000549
aF-0.03160072216962564
aF-0.02843893846867086
aF-0.018447138158275204
aF-0.01541579536403202
aF-0.012807184547184663
aF-0.010020198488492662
aF-0.006483654746626291
aF-0.004445078625397686
aF-0.001664142828401958
aF0.0011078724799376313
aF-0.006779325836725909
aF-0.006310313863604266
aF-0.005901969325767766
aF-0.005461780242717662
aF0.022694029398925418
aF0.02920800442345514
aF0.035688896540521466
aF0.04447572717463058
aF0.03160766972945138
aF0.03320787705630258
aF0.03579607650301869
aF0.03825619655879108
aF0.046636102677024546
aF0.05046218256058864
aF0.05418775821735115
aF0.057999558562563225
aF0.04628884701971104
aF0.04674220042782599
aF0.047200490829567454
aF0.04770537216226292
aF0.05745896192005434
aF0.059866538770611835
aF0.0623142970637392
aF0.06476918555223828
aF0.06045714669753951
aF0.061445434227096314
aF0.06236488029318647
aF0.06331991318266607
aF0.06436794615095574
aF0.06533016014078344
aF0.06630266250399589
aF0.06728472141531996
aF0.04387250921646574
aF0.03959516559574868
aF0.035288965349198814
aF0.031035491847119033
aF0.07005697649676662
aF0.0746128328119235
aF0.07935350610322574
aF0.0842147925238968
aF0.07174767496294991
aF0.07247945719336515
aF0.07354514052114464
aF0.0746876770963191
aF0.05794729319679703
aF0.05540265863288008
aF0.052717350902787265
aF0.05006899778168162
aF0.046963549796282235
aF0.04422046712873592
aF0.041498302268365345
aF0.03875892780756162
aF0.060057637272284414
aF0.06226609392005689
aF0.06450651148888002
aF0.066739126938242
aF0.0798331080927471
aF0.08368183162839533
aF0.08978406380739506
aF0.09243742209871647
aF0.09830532903852052
aF0.10296307493369106
aF0.10764106563400692
aF0.11232122675705569
aF0.07094636657637672
aF0.06625270645667562
aF0.06146368312017276
aF0.08185455332053816
aF0.08242420590895784
aF0.08389152809612972
aF0.08536268306683441
aF0.08682771614898627
aF0.06839833497711643
aF0.06710636726868516
aF0.06477715090505752
aF0.06240614330959658
aF0.08884445211082315
aF0.09229108421518575
aF0.09575079349754807
aF0.06517903921099241
aF0.0628206068690432
aF0.05825359268437359
aF0.05362178519763563
aF0.05936590249036994
aF0.05799730425322006
aF0.05631148688732112
aF0.05448714249595008
aF0.06542813273739026
aF0.06628047019748619
aF0.06740220968481744
aF0.06859543594327275
aF0.07301028454571637
aF0.07419035915542897
aF0.07602113486444823
aF0.0778577372880484
aF0.07838468832659849
aF0.07940107721986435
aF0.08082486974300264
aF0.08223068040665295
aF0.09251668677871547
aF0.09451198963568785
aF0.0977861024257733
aF0.10103228517449482
aF0.05537232753349686
aF0.04900838592734422
aF0.040997770310554384
aF0.03300437088206778
aF0.04197461801057862
aF0.038376473546293165
aF0.034676758116921086
aF0.030763439908821355
aF0.07511780136336824
aF0.08215206871092426
aF0.08949610503236713
aF0.09686220266242963
aF0.05627086270116554
aF0.052947757304515904
aF0.04925382635719768
aF0.045555544768916635
aF0.0414645705182002
aF0.0376791802323424
aF0.03385898186436513
aF0.03013430511017177
aF0.057926892322161326
aF0.06096867741833608
aF0.06418321685816675
aF0.06738324570292342
aF0.048817427752678604
aF0.04815252310117224
aF0.04582777812042683
aF0.04349914790665876
aF0.08180037413968756
aF0.09930667546678255
aF0.10607310202287877
aF0.1125881096555897
aF0.08928971446394049
aF0.08778999218498651
aF0.08627442130407648
aF0.08480469343455367
aF0.08021928826915711
aF0.07803225930467894
aF0.07833498558396144
aF0.07614363612506117
aF0.0807818620696082
aF0.08012619805740726
aF0.09410837688756993
aF0.0934771180818149
aF0.084714920105741
aF0.08352093217887752
aF0.0887880888356478
aF0.08656917037568915
aF0.0966634055601676
aF0.0970735320098717
aF0.09367548535969882
aF0.09411095606391846
aF0.11150932599738601
aF0.11548721767911954
aF0.11758558702349194
aF0.12146526536703892
aF0.1029982861840813
aF0.1021535115061287
aF0.10130637527950863
aF0.10046169195086024
aF0.09851952306607965
aF0.09748075649428171
aF0.0964001310302705
aF0.09532095687033333
aF0.09341069561340831
aF0.09216239260286868
aF0.09088114032664132
aF0.08963848590561599
aF0.10375682735412237
aF0.1058476658856516
aF0.10793658088420253
aF0.11003128320806156
aF0.09371150918708161
aF0.09188743035003162
aF0.0900450512084561
aF0.08816907282461621
aF0.09557759808798157
aF0.0956766610628403
aF0.09575895061250374
aF0.09585014666597809
aF0.09808621571833852
aF0.09846661747047267
aF0.09898469526312322
aF0.09949598703415106
aF0.10159362900729174
aF0.1024398061856507
aF0.10336294624639845
aF0.09208038213168401
aF0.07636140993914511
aF0.07378853774610415
aF0.07100087106176613
aF0.06857768666067532
aF0.10560887514959955
aF0.11105598217983542
aF0.11652893847420227
aF0.12201534604099101
aF0.08011761489427476
aF0.07580039916946041
aF0.07142892640571474
aF0.06659339167553527
aF0.0800624102081146
aF0.07928846417642862
aF0.07849843595618874
aF0.08506265184523189
aF0.08587967652663532
aF0.08691480868723989
aF0.08794681179956022
aF0.12965441238809328
aF0.13357998229390558
aF0.13590814810833185
aF0.1416265876396947
aF0.1311799299566117
aF0.13162729848219462
aF0.13458308194893817
aF0.13755829465307026
aF0.1098765145349965
aF0.1081161174133071
aF0.10415378348400514
aF0.10020471394820789
aF0.06904478889177719
aF0.06170462575291972
aF0.049779060987995845
aF0.04260120323663138
aF0.08759300195462998
aF0.08951677653521532
aF0.09258227418605845
aF0.09568595438777697
aF0.09081815956903098
aF0.09142125498522943
aF0.09246698412945849
aF0.09351396534301988
aF0.08701676703445245
aF0.08650021021019465
aF0.08579817244165855
aF0.08510482674176581
aF0.08233530772582806
aF0.08202817655807584
aF0.08097151976058194
aF0.0799909391617988
aF0.10853949732935729
aF0.11436193827009401
aF0.12020967384303885
aF0.12605020909554024
aF0.13436485500444356
aF0.1408120306520533
aF0.1471768208343325
aF0.15405403219543462
aF0.09376132058560169
aF0.08570699309061397
aF0.07707303215183073
aF0.06839400162890306
aF0.1009160531485989
aF0.1016550480918864
aF0.10239412893760849
aF0.10313480045943749
aF0.11773721568102476
aF0.12034704647888202
aF0.12394803835588092
aF0.12757582858234073
aF0.12603002559466842
aF0.12850189061526085
aF0.13139035764621948
aF0.13347449739902958
aF0.10021105297455485
aF0.09617861155123404
aF0.09213230866106706
aF0.0867562897516564
aF0.08975078298401203
aF0.08711179540544763
aF0.08474623419844211
aF0.08223023434721406
aF0.1107282514434016
aF0.11183612542332953
aF0.11396210480378359
aF0.11634882080101455
aF0.10052488122218764
aF0.09876763171385879
aF0.09700765523130304
aF0.09528736259982341
aF0.09785046141338008
aF0.09707495406246244
aF0.09094861336639447
aF0.09015405270210101
aF0.1195503611211941
aF0.12366785979356813
aF0.12405720688845435
aF0.12851807822135683
aF0.11908174565833259
aF0.12070274206387782
aF0.12234210449965964
aF0.1200173741712814
aF0.11612291781071565
aF0.11655691477922966
aF0.11698343347616026
aF0.11741954341891737
aF0.08960292303132499
aF0.08401511473618015
aF0.0784158764511409
aF0.07187552417460515
aF0.06437039412624118
aF0.05817294023702253
aF0.05198275624851406
aF0.04527817278063081
aF0.08712395093619439
aF0.09105265552886237
aF0.09501718066340364
aF0.09868027401223724
aF0.10838953652793167
aF0.11346167928012005
aF0.118558098063662
aF0.12256950227857073
aF0.09690696907184668
aF0.09559941450084221
aF0.09428206381899859
aF0.09296348730803243
aF0.0972892688562849
aF0.0970687625570535
aF0.09697858809398846
aF0.10661448039378561
aF0.10713283726101161
aF0.10911805128955898
aF0.11108404580687328
aF0.10150863055383318
aF0.10096804762422766
aF0.10009754093677138
aF0.09922056748638897
aF0.08721050435503715
aF0.08604812338213365
aF0.08319144135944882
aF0.08117516398787729
aF0.08509918113104367
aF0.084505050371998
aF0.08326415712614554
aF0.08202897063720693
aF0.09755788457666531
aF0.09775259973306166
aF0.09939499205237719
aF0.10162012366793052
aF0.12693569265009444
aF0.12945360423813126
aF0.13649271600920684
aF0.14308099111788344
aF0.10921314949305858
aF0.1088082774743803
aF0.10709906709381677
aF0.10482709196381089
aF0.08109657619521368
aF0.0810405503581696
aF0.07594654461574206
aF0.07013245233711585
aF0.060952978250520526
aF0.06007988763879361
aF0.05571044165822229
aF0.050554623684384396
aF0.07834985272747133
aF0.07906543690687304
aF0.08080548549119092
aF0.11967283239323115
aF0.12382700354864422
aF0.13300950195013075
aF0.14263264238624718
aF0.11035278285964698
aF0.11014971116448659
aF0.10994269956304735
aF0.1097404096878352
aF0.07887782124868994
aF0.07334492684663713
aF0.06683775083731011
aF0.059975284994748544
aF0.06596187361968261
aF0.0629878889856147
aF0.06009713565600753
aF0.056500353253013974
aF0.07085228770617279
aF0.07122250799284424
aF0.07151741702064583
aF0.07193343269227812
aF0.07358016512434885
aF0.07379108861191182
aF0.07429795919054329
aF0.07486742605324388
aF0.05453606576301456
aF0.05323249987510854
aF0.052258158543667846
aF0.04946581910611018
aF0.06727671183306573
aF0.06814094805325889
aF0.0695758331926797
aF0.07102383630505925
aF0.06805763557980539
aF0.06830783981042857
aF0.06870202169114928
aF0.06913079931307933
aF0.06850416952315445
aF0.06868919683112078
aF0.06888201865355943
aF0.06907048249870724
aF0.040273207355816305
aF0.038444310767987856
aF0.035866329220288644
aF0.03011295107829902
aF0.028255309488754526
aF0.024134982667173618
aF0.020063736180331106
aF0.04279879718399534
aF0.04384310001851913
aF0.045447359546796996
aF0.04706030750384888
aF0.06576693638471359
aF0.07095312672411117
aF0.07648176411102471
aF0.08147049861820835
aF0.08709547535459784
aF0.08867317531552577
aF0.09058457203178456
aF0.0936594068708396
aF0.07858729226412232
aF0.07863612947519535
aF0.0787432610988041
aF0.07885025474240165
aF0.06135028051979385
aF0.05821340115325322
aF0.05341098622952905
aF0.051124635032528135
aF0.0605266413355385
aF0.06010080411241387
aF0.058798521137491434
aF0.0580791300087107
aF0.06619599774969828
aF0.06720020794377957
aF0.0642232814119932
aF0.06535712060573104
aF0.06781391240375335
aF0.06823257577661333
aF0.0683069053343414
aF0.06632811730451288
aF0.06638337640278276
aF0.06670096904489912
aF0.06826621971253136
aF0.07471646670902424
aF0.07482666160975793
aF0.07584415151303366
aF0.07746376115181829
aF0.07378880051792094
aF0.07385370637928347
aF0.07403326307644773
aF0.07421397077808187
aF0.07229315764800488
aF0.07195926092966284
aF0.07131556306362785
aF0.07042367981858434
aF0.06962348591080181
aF0.06757684462352886
aF0.06750523942287355
aF0.06691267144641645
aF0.07374467967522788
aF0.07453534790618992
aF0.07554017073640153
aF0.07646656561533959
aF0.08160737293278651
aF0.08311995545183402
aF0.08414613059078441
aF0.08594781036795748
aF0.08323247833516886
aF0.08442162073947246
aF0.0850813997171631
aF0.08574160493245893
aF0.08061028607248318
aF0.08054472726414572
aF0.07993494909630477
aF0.07927889254377557
aF0.05149908343858253
aF0.04550345712500339
aF0.03856090375924763
aF0.03166013513840289
aF0.05969686504661201
aF0.06076570528432162
aF0.06207325112187284
aF0.06340196976192986
aF0.08432163428771282
aF0.0856608154988925
aF0.09072573171761839
aF0.09746324072637438
aF0.08886003734770213
aF0.09225610114483154
aF0.09455375052227863
aF0.09637601383523103
aF0.08124537300156556
aF0.08070613261278352
aF0.07911662050290721
aF0.07752020367909568
aF0.05986836848773731
aF0.05438973394528009
aF0.05184572230738173
aF0.045399611518116036
aF0.06330295071918961
aF0.06319367081161821
aF0.06301368387835907
aF0.06284581712870496
aF0.06316460826936464
aF0.06312414690778158
aF0.06306651055434181
aF0.06299511865403314
aF0.08204535899725653
aF0.08598721097207422
aF0.09023420012961392
aF0.09449474488473347
aF0.0780295161230809
aF0.07757481167323907
aF0.07714898255296002
aF0.07667678855942302
aF0.059218108136611936
aF0.052664349848874206
aF0.05159665233813413
aF0.04745327333307938
aF0.0647863225264522
aF0.06504621950746167
aF0.06545767540490499
aF0.0657911559532188
aF0.07466420153626288
aF0.07605620949442976
aF0.07817998572449984
aF0.08032895286280423
aF0.07959497194077379
aF0.08106114985848326
aF0.0825474390609651
aF0.08403041791037735
aF0.06042777538352255
aF0.0578935814455026
aF0.053813885368988595
aF0.05015264671826685
aF0.048505603203543614
aF0.04548063380742097
aF0.04137103815051949
aF0.03887394699134479
aF0.04528566206849814
aF0.04481067357309482
aF0.04381322631016843
aF0.04282611851704809
aF0.03263867798699852
aF0.031993215496807774
aF0.029422124631590617
aF0.02609264239421867
aF0.03549156682833686
aF0.03544601861389456
aF0.0353635362981495
aF0.035275033163790326
aF0.06497297972254167
aF0.06567277534326255
aF0.07058653070608023
aF0.07567523497407795
aF0.06854722336674234
aF0.07092710266687462
aF0.0728220213809644
aF0.07526829595283463
aF0.048571915890860254
aF0.04676903695367028
aF0.0431644292779814
aF0.039586362437071664
aF0.030419883029188223
aF0.025629069860953764
aF0.020810279764035038
aF0.015994743693921173
aF0.022369669473862947
aF0.01999996016954832
aF0.017623148440413197
aF0.015248818281394844
aF0.03484707324165921
aF0.03720856582220572
aF0.04016841644949483
aF0.04217577662921688
aF0.04310707994412599
aF0.045439239641997524
aF0.04731533847355694
aF0.049424769595458835
aF0.04113844512769123
aF0.04101343153151978
aF0.04088794708001731
aF0.04076176538112247
aF0.029958250615338557
aF0.027641826003747892
aF0.025343881102867564
aF0.02297682493427321
aF0.030313249658099544
aF0.0299877910502082
aF0.029662927778335412
aF0.029337065332006355
aF0.027211446995052825
aF0.027019068597100973
aF0.026570599370280404
aF0.025980150072647104
aF0.020063302621735807
aF0.018648309334670377
aF0.016991004805427774
aF0.015362592347018172
aF0.021224297853584876
aF0.021125329493052656
aF0.021048339984884517
aF0.020957783319645953
aF0.03780389202710496
aF0.04119012308262633
aF0.04459799552580575
aF0.04799280968353391
aF0.0484037118488529
aF0.051148265362269824
aF0.05392972959679248
aF0.05558495899205888
aF0.056075268231630594
aF0.05814404033209532
aF0.060229748675692904
aF0.05526084241812364
aF0.055436101404660924
aF0.05557801732115612
aF0.05580941253553864
aF0.03075187558521253
aF0.02980295664577134
aF0.026281499673113315
aF0.02151796367695821
aF0.023212217871041746
aF0.022347669780232476
aF0.019646953547820895
aF0.01695508356298468
aF0.023225342518540776
aF0.02289323941353791
aF0.022697610444696977
aF0.022293155681156175
aF0.04379385951200053
aF0.045674945743150626
aF0.051371778297213025
aF0.05439825657205007
aF0.05164345186719556
aF0.053436753074148934
aF0.056086861711299986
aF0.058403858720569725
aF0.04628794523852978
aF0.0458109566387904
aF0.044934431783601375
aF0.044068856271857734
as.