(dp0
S'y'
p1
(lp2
F-4.876146047975185
aF-4.884478474433225
aF-4.892805006225487
aF-4.9068874993214395
aF-4.91312710403401
aF-4.923561304620483
aF-4.931090287675456
aF-4.949752093464817
aF-4.955078293152949
aF-4.965160100152968
aF-4.9751981547607045
aF-4.978033049830692
aF-4.98165266108345
aF-4.989351820854191
aF-4.996945781395265
aF-5.003764543519545
aF-5.010263190972765
aF-5.017574603293154
aF-5.024866032700724
aF-5.035786201139922
aF-5.043701042669417
aF-5.051742341863927
aF-5.059763513293805
aF-5.064045121760619
aF-5.071201375008462
aF-5.078442909251078
aF-5.085682678261023
aF-5.108230850703787
aF-5.113307495137027
aF-5.122822790039019
aF-5.132318536273487
aF-5.121701430215426
aF-5.125522692523544
aF-5.1305994011889275
aF-5.1909380205787725
aF-5.198277352104155
aF-5.215244287717745
aF-5.231978076799713
aF-5.198716091838568
aF-5.200434196912958
aF-5.204130643096859
aF-5.207826837844977
aF-5.237132446790642
aF-5.242025994814446
aF-5.251018124475963
aF-5.260047267107987
aF-5.269802003870484
aF-5.275095637795226
aF-5.283523509595564
aF-5.291965328452207
aF-5.304437611708586
aF-5.309890877531824
aF-5.3185238728584965
aF-5.327158527246608
aF-5.328801484529707
aF-5.333305401954308
aF-5.339819720582101
aF-5.346341603777427
aF-5.353115485544888
aF-5.359675166937504
aF-5.366244844395858
aF-5.372827437823367
aF-5.366847091453981
aF-5.370422868482969
aF-5.374118278097296
aF-5.377814426823109
aF-5.395978836321125
aF-5.4072763155947925
aF-5.408873896393966
aF-5.417110743806248
aF-5.422761550875227
aF-5.429154015659403
aF-5.4360689230588655
aF-5.4377380804045155
aF-5.441249257067169
aF-5.44638677282685
aF-5.451529632436562
aF-5.4463126028757936
aF-5.448742849396908
aF-5.451302006482094
aF-5.454111371999454
aF-5.467228142803983
aF-5.470580073263834
aF-5.475260059917646
aF-5.480322463475275
aF-5.477484041692328
aF-5.480355697647329
aF-5.483518861012834
aF-5.500374956898151
aF-5.526595601059916
aF-5.551074903596938
aF-5.5565790535074155
aF-5.555977913818142
aF-5.556847681202114
aF-5.558639193507212
aF-5.562029309560642
aF-5.686635655913075
aF-5.686912481993925
aF-5.689356719004333
aF-5.69223347431993
aF-5.6952205767444575
aF-5.696429756301329
aF-5.699213658964756
aF-5.699886717293464
aF-5.689369153128913
aF-5.689185984287862
aF-5.688736652071862
aF-5.688287826676248
aF-5.69461122342332
aF-5.69477807393829
aF-5.694954534543376
aF-5.69581229255464
aF-5.68899110621192
aF-5.690969605323723
aF-5.695039237059488
aF-5.698132976545469
aF-5.6986361741779845
aF-5.699739888467343
aF-5.702386333361106
aF-5.694984323782271
aF-5.685251459117762
aF-5.68509147200963
aF-5.684874753222258
aF-5.6846549710998
aF-5.665754701598617
aF-5.663696014634924
aF-5.659916563769938
aF-5.656332488126819
aF-5.656455870920228
aF-5.655106244066573
aF-5.651932780675608
aF-5.648762375965025
aF-5.659330824177639
aF-5.659131608014731
aF-5.658913753504609
aF-5.658688459929096
aF-5.662955359282471
aF-5.6633023122798365
aF-5.66401110896115
aF-5.664606150955792
aF-5.664582304550222
aF-5.6651024002092205
aF-5.6656199587350695
aF-5.666142019632454
aF-5.665514660313833
aF-5.665764806145403
aF-5.666001328227888
aF-5.666269113048897
aF-5.636277173888658
aF-5.630301975901306
aF-5.623816833272734
aF-5.618325776018566
aF-5.597637177605483
aF-5.594568688934643
aF-5.592597206985866
aF-5.587141850648904
aF-5.584133836029682
aF-5.5783741331198495
aF-5.572922676951516
aF-5.586584649923499
aF-5.585896089725533
aF-5.584979006587636
aF-5.583984580724913
aF-5.590808288004727
aF-5.591529983635576
aF-5.5926673425973
aF-5.593396267837208
aF-5.57812095557676
aF-5.576162630761769
aF-5.573541605598033
aF-5.570697036828915
aF-5.547396927695724
aF-5.5418095757303245
aF-5.540783000859147
aF-5.535389556386439
aF-5.5257862892754765
aF-5.521440745690478
aF-5.514836252133453
aF-5.508277683427024
aF-5.505635890509818
aF-5.500835555068208
aF-5.495907242259573
aF-5.490521685954388
aF-5.49632401797502
aF-5.494770595741814
aF-5.492133632755421
aF-5.489477205085239
aF-5.498952117781645
aF-5.4991712613165324
aF-5.499402397031787
aF-5.499633302643557
aF-5.502943490270931
aF-5.503846008401776
aF-5.504699473930165
aF-5.505627938589356
aF-5.499115491406857
aF-5.498367081680017
aF-5.497530657911339
aF-5.496719739466914
aF-5.4885399293162545
aF-5.486307419179373
aF-5.483849293850775
aF-5.481387764420644
aF-5.489522196290185
aF-5.489505045691698
aF-5.48948517752218
aF-5.489465281917665
aF-5.4924820135708865
aF-5.493147565569499
aF-5.4938177850915855
aF-5.494543333992343
aF-5.494668668061489
aF-5.494836622033673
aF-5.49532483319804
aF-5.495808836165883
aF-5.4974208663830675
aF-5.497803605378911
aF-5.4984067589583185
aF-5.499069619195681
aF-5.491390369337187
aF-5.490706283833474
aF-5.489519862950654
aF-5.48843286627543
aF-5.490587293695386
aF-5.4903549068782755
aF-5.489997310503206
aF-5.489637023558043
aF-5.48459554375138
aF-5.483430264503421
aF-5.482176947924532
aF-5.480838482062745
aF-5.504120537879313
aF-5.507119882179357
aF-5.509059842407659
aF-5.512868562363383
aF-5.504500942384887
aF-5.505479312433924
aF-5.506521261025631
aF-5.507560844523867
aF-5.499672922908463
aF-5.498774626800875
aF-5.498000267504116
aF-5.497146534442285
aF-5.487441600078646
aF-5.4861302093080875
aF-5.483644085961648
aF-5.4809788641723
aF-5.471957231824319
aF-5.471585225826595
aF-5.468713977705319
aF-5.465495454394522
aF-5.4561163124537115
aF-5.453045878746697
aF-5.449104163202339
aF-5.444874770605233
aF-5.4728637273040155
aF-5.4742969146253495
aF-5.477668900884327
aF-5.479343648789891
aF-5.527553336712232
aF-5.532730813405403
aF-5.543788795803061
aF-5.525436215300162
aF-5.526070054743475
aF-5.528742240499933
aF-5.529326196450644
aF-5.532096652144028
aF-5.5058249802714645
aF-5.502783870681378
aF-5.499685931818845
aF-5.4811901458828
aF-5.480487830768823
aF-5.482867947114719
aF-5.477299732931795
aF-5.511218985479566
aF-5.513035159492551
aF-5.51705143245978
aF-5.520466895059779
aF-5.536349956224347
aF-5.542858454483044
aF-5.5462547821922294
aF-5.552302964970903
aF-5.5466625276764665
aF-5.548660835128011
aF-5.551479327437756
aF-5.554416442884232
aF-5.501718136519476
aF-5.494263830580691
aF-5.483691157859115
aF-5.472641299462437
aF-5.483526913504981
aF-5.481869586689968
aF-5.477102820179539
aF-5.469579048040862
aF-5.457587176925619
aF-5.456085092426878
aF-5.450598566347664
aF-5.44510794883365
aF-5.48753295139583
aF-5.490921727432276
aF-5.494164327982529
aF-5.499159815312688
aF-5.51833238153957
aF-5.522691394616787
aF-5.5305463063437115
aF-5.5383657695116435
aF-5.555894297140574
aF-5.562919802108245
aF-5.572429885909332
aF-5.581940653664954
aF-5.501455917535232
aF-5.500761280999195
aF-5.494787596580689
aF-5.4868888850716875
aF-5.472529664064866
aF-5.466663546305828
aF-5.45756825531322
aF-5.447425281200486
aF-5.483937278265844
aF-5.484702729402843
aF-5.485573314851197
aF-5.486448394053151
aF-5.516106145458991
aF-5.523356563227341
aF-5.531235444606832
aF-5.537900661825463
aF-5.5410247464880085
aF-5.54556185852506
aF-5.551586858094057
aF-5.557609808696036
aF-5.515159077006936
aF-5.512244318055314
aF-5.507973864402837
aF-5.503718329291287
aF-5.486428940286856
aF-5.479919709232781
aF-5.472355362433105
aF-5.465963016043561
aF-5.500680349815095
aF-5.501594420520271
aF-5.503324667611625
aF-5.505028427934806
aF-5.523788099289879
aF-5.52464350635754
aF-5.529126273198287
aF-5.533656337972599
aF-5.524675324352265
aF-5.52566347006732
aF-5.527253440050876
aF-5.528723481398491
aF-5.526981410857963
aF-5.52785185501594
aF-5.528733858133381
aF-5.529731164317466
aF-5.521170239292689
aF-5.520213797458531
aF-5.519167719953704
aF-5.518119339374089
aF-5.52670206318061
aF-5.527571319503407
aF-5.528539302956118
aF-5.529380579593262
aF-5.5091911251476695
aF-5.505692797205775
aF-5.501798144621855
aF-5.500357926488334
aF-5.498006435667655
aF-5.495353167167294
aF-5.492490689418451
aF-5.497187706201175
aF-5.496688134411467
aF-5.495874015248267
aF-5.494945767930913
aF-5.528488311112959
aF-5.5324849770487825
aF-5.5396193227273125
aF-5.546710025423459
aF-5.5286154658159345
aF-5.528661538907187
aF-5.5286949878565395
aF-5.529206896502771
aF-5.534556503129853
aF-5.535951733391968
aF-5.53760739964091
aF-5.539416929996517
aF-5.544035458590603
aF-5.544229895520193
aF-5.546155941082374
aF-5.548142841975714
aF-5.520013584049807
aF-5.51699803334263
aF-5.512640389263246
aF-5.507890282013883
aF-5.502015926963986
aF-5.501271175738101
aF-5.497125882211432
aF-5.492616391356048
aF-5.502126735714751
aF-5.5018229449276665
aF-5.5014473458560085
aF-5.500635783924229
aF-5.5174147520236385
aF-5.520702596594038
aF-5.52150236480027
aF-5.5243988977707055
aF-5.530822904465884
aF-5.534022368620084
aF-5.53764303828713
aF-5.5415571046752
aF-5.538962038085136
aF-5.540931233008406
aF-5.543131755260042
aF-5.545546516810413
aF-5.538240293567677
aF-5.538292862542283
aF-5.538340475054493
aF-5.5383923313962145
aF-5.516056362899135
aF-5.515104550428261
aF-5.5123847011508245
aF-5.507951975892595
aF-5.495565839180812
aF-5.488643034796272
aF-5.484298930710137
aF-5.480797363878748
aF-5.495190782280225
aF-5.495274885671635
aF-5.495388581878031
aF-5.49619706527525
aF-5.522412592423915
aF-5.523905000460468
aF-5.526988775766454
aF-5.532161690433205
aF-5.534715202448452
aF-5.538108615657843
aF-5.562118252127769
aF-5.570157487862333
aF-5.537815446384388
aF-5.536174793542544
aF-5.533500414315362
aF-5.530508893487271
aF-5.535613013618378
aF-5.558167472943816
aF-5.557158795644388
aF-5.557327006878973
aF-5.552939872743517
aF-5.551474952278375
aF-5.549760908847429
aF-5.548046680087777
aF-5.555825698635208
aF-5.555488014059283
aF-5.554628981704666
aF-5.55333277254597
aF-5.557253604256916
aF-5.5593892090437
aF-5.560056177702857
aF-5.559912042648884
aF-5.5696883874853285
aF-5.570120963284826
aF-5.571857122816596
aF-5.5735955149886784
aF-5.570745705952702
aF-5.5712722247985935
aF-5.571879792683298
aF-5.572543307707246
aF-5.567528680702376
aF-5.566920906538118
aF-5.566298869305571
aF-5.565696579053597
aF-5.561196335265864
aF-5.5597297581955525
aF-5.5582543235212
aF-5.556791131971742
aF-5.562692815593465
aF-5.562835780830418
aF-5.5629707211641595
aF-5.563128942139151
aF-5.5717656819552115
aF-5.573147504307195
aF-5.5750966653954395
aF-5.577207557730834
aF-5.575579446871773
aF-5.576330329543203
aF-5.577439172855222
aF-5.578547093679715
aF-5.574805637158966
aF-5.574828166121515
aF-5.574848783362454
aF-5.574873839685776
aF-5.57965971219317
aF-5.580621256392438
aF-5.581704140844028
aF-5.582844804131099
aF-5.5679315589562535
aF-5.5673058637667046
aF-5.56575295575098
aF-5.563688936161657
aF-5.574339798959777
aF-5.574943398790516
aF-5.575335311229095
aF-5.576005799288826
aF-5.581160560414422
aF-5.582281393832987
aF-5.5838842659548975
aF-5.585632919690899
aF-5.606606048178759
aF-5.607654290906023
aF-5.611261011337298
aF-5.616161827156861
aF-5.583200740231099
aF-5.579792739810616
aF-5.576166688011573
aF-5.575742079471868
aF-5.574053274441415
aF-5.573746947310645
aF-5.57128297548937
aF-5.568478630820155
aF-5.5719651058034225
aF-5.571581863321628
aF-5.570514933892777
aF-5.5694549850233015
aF-5.58121458872561
aF-5.58188638023849
aF-5.582550366056097
aF-5.585793492284545
aF-5.585918049127301
aF-5.586770700649853
aF-5.588133441062536
aF-5.586183343338991
aF-5.586695770352464
aF-5.587265226796824
aF-5.587834756098969
aF-5.580010046628292
aF-5.579039369635441
aF-5.577719136967644
aF-5.576398788117512
aF-5.5808171742343164
aF-5.589363016299032
aF-5.588143633445346
aF-5.5869241189351735
aF-5.5913102457078026
aF-5.5914262834134
aF-5.597756715981283
aF-5.597887752104812
aF-5.596872508311457
aF-5.5967849900787785
aF-5.596650193275307
aF-5.596515349039108
aF-5.619945345591267
aF-5.619809661233403
aF-5.619392522442239
aF-5.619156683285848
aF-5.628301579628127
aF-5.619837732810783
aF-5.62092765618687
aF-5.6231285284231864
aF-5.615380117918927
aF-5.615245100684519
aF-5.614948998333601
aF-5.614637960626005
aF-5.615093719850103
aF-5.615026807454946
aF-5.614915242721172
aF-5.614763324879714
aF-5.6165285309462085
aF-5.6165895692208
aF-5.616887636523138
aF-5.617185662129412
aF-5.617510074197234
aF-5.6087916380146225
aF-5.607872742670739
aF-5.606494913079093
aF-5.608238646982239
aF-5.608025364764497
aF-5.60749433548243
aF-5.606957766043166
aF-5.6064306444555365
aF-5.611327514119553
aF-5.611769200451358
aF-5.612304805179968
aF-5.612842271579719
aF-5.609214511421095
aF-5.6091951946331235
aF-5.6090382852208425
aF-5.608802003792883
aF-5.609751488879469
aF-5.60976329575302
aF-5.609775261656865
aF-5.609786997097136
aF-5.614381793210108
aF-5.615342334999073
aF-5.6163187251869156
aF-5.617926869247322
aF-5.621621502152913
aF-5.622008363334504
aF-5.622370027098015
aF-5.623700283963986
aF-5.621687059103984
aF-5.621978825428493
aF-5.622526447937599
aF-5.6230865088896484
aF-5.6141220523597095
aF-5.613658948158376
aF-5.611828679233276
aF-5.611094645492188
aF-5.614590612377184
aF-5.6143235509407035
aF-5.614055676290775
aF-5.613788670495215
aF-5.6119313058654186
aF-5.61132711756991
aF-5.610719518547711
aF-5.610113793364695
aF-5.608802362079956
aF-5.60832123914446
aF-5.6076110257886755
aF-5.606917206100766
aF-5.611496008546802
aF-5.611535031211422
aF-5.611762661388214
aF-5.6121017118805305
aF-5.610077545893397
aF-5.60996385760931
aF-5.609801966435995
aF-5.6096399223774815
aF-5.60521411517835
aF-5.604244413137348
aF-5.603181121584341
aF-5.60206633782424
aF-5.598406235658821
aF-5.59714840882798
aF-5.595549389199086
aF-5.593953446830189
aF-5.585467467797499
aF-5.58232037890832
aF-5.579162241665228
aF-5.576008435376868
aF-5.6080450943683795
aF-5.6108841023836105
aF-5.615350712022237
aF-5.619744098842965
aF-5.624766101214253
aF-5.628759716969901
aF-5.633455749162405
aF-5.6376725324709716
aF-5.61109973265391
aF-5.608651390749637
aF-5.606159954233532
aF-5.603668986028815
aF-5.609657870182866
aF-5.609093838371889
aF-5.608550264690815
aF-5.6080041577411475
aF-5.613785309686966
aF-5.614587721961181
aF-5.615462043527171
aF-5.616337148616916
aF-5.620519206335602
aF-5.622158240695944
aF-5.623802545157454
aF-5.625448415516691
aF-5.636661267684855
aF-5.637652894023391
aF-5.639756379221666
aF-5.6415502856681625
aF-5.647573525253427
aF-5.650103751906862
aF-5.64187831651627
aF-5.6445629807017665
aF-5.641882921572434
aF-5.642671637584315
aF-5.640561759643109
aF-5.641901834048627
aF-5.640436558430622
aF-5.64104510788938
aF-5.641922895231805
aF-5.642869005826525
aF-5.650747156121113
aF-5.652670463008204
aF-5.6550186148123585
aF-5.657380991714231
aF-5.646333177188559
aF-5.645668083250246
aF-5.645061911679432
aF-5.64445844881055
aF-5.630784159695695
aF-5.627432807857117
aF-5.62362611611333
aF-5.619514149771189
aF-5.620420944251458
aF-5.6186462451591455
aF-5.616109100537
aF-5.61338683794898
aF-5.62095777846715
aF-5.62050050615701
aF-5.6200401908082345
aF-5.619579390711329
aF-5.63110880264602
aF-5.633092359157816
aF-5.635083017856901
aF-5.634557504871731
aF-5.635740866962052
aF-5.637046934705958
aF-5.638352386520517
aF-5.6245096808528565
aF-5.622093657871242
aF-5.619558907166624
aF-5.617022290885487
aF-5.606888176502802
aF-5.603034443327488
aF-5.602207684786505
aF-5.598476836854389
aF-5.596736157871831
aF-5.595020048674888
aF-5.591980516583522
aF-5.589099755951922
aF-5.616215498334302
aF-5.620327486478447
aF-5.624473164902091
aF-5.628626818239337
aF-5.622995774185152
aF-5.6246900999705955
aF-5.626528260309919
aF-5.628381266279927
aF-5.641660832320632
aF-5.6471646636673585
aF-5.6480083376629375
aF-5.651502751545399
aF-5.656191783669083
aF-5.660368608525717
aF-5.664551088230628
aF-5.668805642155594
aF-5.671212851479113
aF-5.674582558761353
aF-5.6782682089503345
aF-5.681970988752395
aF-5.657049101817392
aF-5.655501393135178
aF-5.652687069617798
aF-5.649876209869367
aF-5.626885694300225
aF-5.623729057740165
aF-5.616944888782969
aF-5.610156212866078
aF-5.623969194576874
aF-5.622091769796576
aF-5.620417617353913
aF-5.61883555028486
aF-5.6502948834211
aF-5.651924234368613
aF-5.654465532862646
aF-5.659323461486844
aF-5.667231160578135
aF-5.668045816277884
aF-5.672706857870274
aF-5.677377306658573
aF-5.6509097979450145
aF-5.64980239842869
aF-5.647111571287463
aF-5.644936833446296
aF-5.638654638126301
aF-5.638138561022751
aF-5.637586029392349
aF-5.635746955177845
aF-5.643391960119896
aF-5.6434068243676245
aF-5.643435920778272
aF-5.64346467072997
aF-5.664006527371574
aF-5.666528925368251
aF-5.671054738480644
aF-5.675761715899721
aF-5.669059135376996
aF-5.670161595665033
aF-5.671872096344708
aF-5.673584677409285
aF-5.676416686023058
aF-5.6765454574418746
aF-5.677825093625593
aF-5.679597531983166
aF-5.683193363985539
aF-5.683330408152312
aF-5.6838057173441
aF-5.685326659287159
aF-5.654965042446883
aF-5.651435256716308
aF-5.645582916369423
aF-5.640628573403846
aF-5.636229860994735
aF-5.631626686037279
aF-5.626559766923083
aF-5.621494874219883
aF-5.649810037663084
aF-5.652247053355665
aF-5.654687447608001
aF-5.657129013615166
aF-5.669663275475423
aF-5.67433210777342
aF-5.679021381658672
aF-5.683758527455417
aF-5.665458701096015
aF-5.665097524085215
aF-5.664734576086111
aF-5.664371365126479
aF-5.675662285304842
aF-5.677157446433217
aF-5.6792113217315485
aF-5.681265673664313
aF-5.671273699071242
aF-5.670744621714571
aF-5.670212975072129
aF-5.669681472938729
aF-5.665990158330196
aF-5.664794436738525
aF-5.663598030309293
aF-5.662398606763536
aF-5.651754534468664
aF-5.648556886603022
aF-5.645352378593147
aF-5.642148203973459
aF-5.656219655895175
aF-5.656410402146101
aF-5.656739265836189
aF-5.65710832840285
aF-5.672143483727107
aF-5.675539086577902
aF-5.678940394424904
aF-5.690295921218558
aF-5.692300604517388
aF-5.697034612022584
aF-5.701775701942966
aF-5.683668101762021
aF-5.682975593850242
aF-5.682028092053244
aF-5.681079174783083
aF-5.684101415521913
aF-5.684127351137604
aF-5.684160090541135
aF-5.68419312329002
aF-5.689226361183831
aF-5.6895437521328125
aF-5.689854197119455
aF-5.690798731290202
aF-5.6850740081195
aF-5.684711458085662
aF-5.68414620937618
aF-5.683566068683457
aF-5.689869099708549
aF-5.690282029510987
aF-5.691148952186633
aF-5.692084505208422
aF-5.688461537780949
aF-5.688390801802189
aF-5.6882596022239
aF-5.68812864118458
aF-5.704417714605617
aF-5.707580224498688
aF-5.711139907291714
aF-5.714708402839737
aF-5.723449751392158
aF-5.726910044742786
aF-5.730402677687659
aF-5.734778943314417
aF-5.725271301614898
aF-5.726440100376738
aF-5.727748210200204
aF-5.72905135376736
aF-5.724042141018483
aF-5.723945446656121
aF-5.723781201803483
aF-5.723777995744577
aF-5.733939872074373
aF-5.736087870235242
aF-5.7382448922611236
aF-5.740384976260108
aF-5.751352993303431
aF-5.755408030143077
aF-5.759468559826541
aF-5.763514788730234
aF-5.761782217313524
aF-5.764586582652596
aF-5.7674034717031635
aF-5.770214504389314
aF-5.765369490423858
aF-5.76639525390245
aF-5.767547592976806
aF-5.768686658395332
aF-5.769284642853924
aF-5.770315526831201
aF-5.771348033630048
aF-5.772379404866726
aF-5.781051128971351
aF-5.78209348494047
aF-5.784430976758186
aF-5.78677281973572
aF-5.78840958553228
aF-5.790604529078351
aF-5.792804222385043
aF-5.8009722713793135
aF-5.802703075980209
aF-5.806016742405809
aF-5.809330660592515
aF-5.8099422806068795
aF-5.810897517172766
aF-5.812816767172494
aF-5.815061945184558
aF-5.82333931965532
aF-5.825417067175599
aF-5.828837113282474
aF-5.832262370101459
aF-5.840433663129809
aF-5.842886190270294
aF-5.8470487808666425
aF-5.851219027791342
aF-5.847100601576544
aF-5.849513668786298
aF-5.85153180594828
aF-5.852065268260574
aF-5.8639002675849525
aF-5.866709340382711
aF-5.868056799077209
aF-5.871653692039082
aF-5.880690023938221
aF-5.882994769590014
aF-5.887399039241129
aF-5.8917807974230865
aF-5.896654696704466
aF-5.899417578876763
aF-5.9036050502442965
aF-5.907771106251455
aF-5.907352367467078
aF-5.90895430777335
aF-5.911781169011441
aF-5.914606744148549
aF-5.919033335614096
aF-5.920395516894243
aF-5.923208663915272
aF-5.926067386959478
aF-5.939352149919309
aF-5.9446865347975555
aF-5.950040378400593
aF-5.95554591452416
aF-5.962693837159356
aF-5.968527891721738
aF-5.974302547013333
aF-5.980209136105991
aF-5.985739735676114
aF-5.986786658194208
aF-5.989679712506805
aF-5.994216201004255
aF-6.001002587515069
aF-6.006055185559947
aF-6.011117123309782
aF-6.0161828090973986
aF-6.025119931896049
aF-6.031055283463338
aF-6.037008118498671
aF-6.042966241449406
aF-6.049868390715083
aF-6.0547172662117035
aF-6.0606770807834325
aF-6.06655291993998
aF-6.067933287773062
aF-6.072709258846284
aF-6.077542543986427
aF-6.082396251156531
aF-6.08123177492147
aF-6.084095532325823
aF-6.087493632758124
aF-6.090886556079916
aF-6.10552478119714
aF-6.111357019068824
aF-6.117220254575877
aF-6.123071198724495
aF-6.1375986508565115
aF-6.145310383175599
aF-6.153125477477502
aF-6.161232863374522
aF-6.159063574747854
aF-6.1622796861686515
aF-6.167541750388021
aF-6.1727970413222994
aF-6.182613727689408
aF-6.188539986609994
aF-6.194729064014813
aF-6.200900564151048
aF-6.195023675381461
aF-6.198681418474504
aF-6.20234567073762
aF-6.206009248627261
aF-6.217204101793504
aF-6.222406682577353
aF-6.227638600554101
aF-6.241034822610362
aF-6.246289430277047
aF-6.253217473874603
aF-6.260149646470531
aF-6.2681453684521005
aF-6.274002536143702
aF-6.280930542897333
aF-6.287855723340755
aF-6.2905649270011965
aF-6.294130944201867
aF-6.299489033514832
aF-6.304883161077732
aF-6.321402493424046
aF-6.326191853958734
aF-6.333784522024357
aF-6.341911964430634
aF-6.343126999263608
aF-6.348947393303356
aF-6.356724353941054
aF-6.361217704050519
aF-6.365080997461093
aF-6.37007220107206
aF-6.375563158865859
aF-6.381028412885475
aF-6.3821319325762715
aF-6.386371247013365
aF-6.3907696553265305
aF-6.395180660773849
aF-6.398369707051417
aF-6.402440858506702
aF-6.406551679733855
aF-6.4106635206649285
aF-6.418802045407681
aF-6.422647579872425
aF-6.4274759269847905
aF-6.43228779838899
aF-6.433869682447156
aF-6.437662852949964
aF-6.441679805576479
aF-6.445702288848196
aF-6.462532776293021
aF-6.469408934691959
aF-6.47632157336257
aF-6.483217421718891
aF-6.4808584321429406
aF-6.485705522256671
aF-6.490554280670282
aF-6.495401021604968
aF-6.491670856083006
aF-6.49463327154014
aF-6.497605791659002
aF-6.500652650667337
aF-6.506028078664001
aF-6.508311317744676
aF-6.511601285743489
aF-6.514883687814607
aF-6.520068748867446
aF-6.52374699770469
aF-6.527436484441913
aF-6.53112908707519
aF-6.556265633260959
aF-6.5644669873440895
aF-6.572688935198027
aF-6.5809223313462795
aF-6.586505669939915
aF-6.5941466501834425
aF-6.601823655562031
aF-6.573158703030051
aF-6.5719602476894305
aF-6.570349808018335
aF-6.568737686173492
aF-6.570604665018682
aF-6.569948043835084
aF-6.569232254784042
aF-6.568516388355667
aF-6.581320921197229
aF-6.583355791243665
aF-6.585864039376764
aF-6.588378031390255
aF-6.627252016887078
aF-6.630268494014574
aF-6.640006191570713
aF-6.649738245686725
aF-6.655556177534802
aF-6.664320838874271
aF-6.673100748969109
aF-6.681889759127633
aF-6.653973188296829
aF-6.65403112223924
aF-6.654089211889943
aF-6.6541473694015725
aF-6.65158476219292
aF-6.6510213645476615
aF-6.65045813610308
aF-6.649893373572365
aF-6.662349464107542
aF-6.6648414550221355
aF-6.667323904235595
aF-6.669818500154369
aF-6.672907183920079
aF-6.675532334705639
aF-6.678329446360759
aF-6.680786569575345
aF-6.678432306195453
aF-6.679919227926415
aF-6.681412302272331
aF-6.682905143881114
aF-6.689605759756985
aF-6.692262645707678
aF-6.694928397713162
aF-6.697589620784408
aF-6.719929621455734
aF-6.727100426839016
aF-6.733868545668544
aF-6.740857165359279
aF-6.730201969709363
aF-6.733622108938471
aF-6.736539246764135
aF-6.739720489334395
aF-6.740674259687559
aF-6.743364547684925
aF-6.746066403764852
aF-6.749649555114864
aF-6.75297266567339
aF-6.755985684898516
aF-6.759005552525974
aF-6.762030420574181
aF-6.747531542893148
aF-6.746952404015207
aF-6.709363773880286
aF-6.7034538183559595
aF-6.7020386378766865
aF-6.700210884708477
aF-6.698366094563711
aF-6.7073123271177675
aF-6.708009489520895
aF-6.70599132108034
aF-6.706862274244486
aF-6.7128389629155985
aF-6.714133061569705
aF-6.716197210795357
aF-6.718261863921339
aF-6.718227418589966
aF-6.719778291626024
aF-6.721324998598305
aF-6.72279280872093
aF-6.725624289877791
aF-6.726603142736642
aF-6.728293282518991
aF-6.7299804870585636
aF-6.723930762869461
aF-6.723789519664781
aF-6.723646820806425
aF-6.715367740293964
aF-6.724384513640891
aF-6.725938140382354
aF-6.727816349527625
aF-6.729772180787224
aF-6.731388506961258
aF-6.733263989202204
aF-6.735145838693516
aF-6.7370264102243045
aF-6.7288729585271465
aF-6.728472163255281
aF-6.728070049731086
aF-6.72766924000822
aF-6.708306907986671
aF-6.707718611225356
aF-6.70533838171753
aF-6.701487957007684
aF-6.7054323876777815
aF-6.703406698335284
aF-6.7013487168181545
aF-6.699315136561502
aF-6.692898789342236
aF-6.689876221221962
aF-6.686843572213467
aF-6.683792969276503
aF-6.685510531996028
aF-6.683551528038601
aF-6.6815747899217754
aF-6.679599293117045
aF-6.68051016778737
aF-6.679160920559154
aF-6.67780663822095
aF-6.676365666540114
aF-6.674508719765315
aF-6.672966915711415
aF-6.671558662823568
aF-6.670050233251613
aF-6.666064249341456
aF-6.664054532024908
aF-6.662033971765354
aF-6.640844246578364
aF-6.637414310221493
aF-6.631174834278124
aF-6.624935832110426
aF-6.625585492115073
aF-6.622373021953976
aF-6.618099043885318
aF-6.613887268633851
aF-6.613893512564761
aF-6.612304261927829
aF-6.6085400480126015
aF-6.606585468965944
aF-6.610454645535658
aF-6.609883101641131
aF-6.60878480543367
aF-6.60770766686155
aF-6.592992372692507
aF-6.589379811082228
aF-6.5851621061615155
aF-6.580935159187229
aF-6.569424944529114
aF-6.563488092670129
aF-6.557548270044249
aF-6.551605072627179
aF-6.532714597550379
aF-6.527008225322298
aF-6.5189019962011425
aF-6.510590195286623
aF-6.515042978639498
aF-6.509703668602505
aF-6.504347482414595
aF-6.499000376795198
aF-6.492531518829024
aF-6.492228859169579
aF-6.491053911014539
aF-6.48834622112323
aF-6.485969597251149
aF-6.482433575461933
aF-6.4788780723208195
aF-6.4753212325030045
aF-6.455025351399046
aF-6.451574804543117
aF-6.445005535626015
aF-6.438441233831215
aF-6.435706736959684
aF-6.4346243909474055
aF-6.430331313818845
aF-6.425526018885741
aF-6.417961806801619
aF-6.412579637150346
aF-6.407191817334798
aF-6.401799231540986
aF-6.3844982970297774
aF-6.376561825610599
aF-6.3684254942724365
aF-6.360656150660729
aF-6.340967552553854
aF-6.330584484397042
aF-6.320173980407079
aF-6.30975127808766
aF-6.300575717691526
aF-6.2957230021329735
aF-6.286444769726943
aF-6.298171389456986
aF-6.297358316459595
aF-6.29535266319148
aF-6.292372203208291
aF-6.289353583616588
aF-6.287479260956804
aF-6.284730984178838
aF-6.281967246300923
aF-6.263820608396788
aF-6.260606328255086
aF-6.254613774577603
aF-6.248618101940192
aF-6.2381269117988705
aF-6.23499015147307
aF-6.228599770974135
aF-6.22231475674136
aF-6.211945953736748
aF-6.210038172135645
aF-6.20380365367388
aF-6.1975502334128585
aF-6.1839738891074205
aF-6.1798925322732
aF-6.17263947402204
aF-6.165369866551643
aF-6.163341938495085
aF-6.1591354485131475
aF-6.15346271326143
aF-6.147814685301229
aF-6.137017177004768
aF-6.134077077869264
aF-6.127949163589513
aF-6.121830217957422
aF-6.116528879721665
aF-6.110811775346811
aF-6.104913884394643
aF-6.098999324674848
aF-6.091383630630805
aF-6.086866309911249
aF-6.08090171819193
aF-6.074934050318275
aF-6.066947895199336
aF-6.060532467583993
aF-6.054114495438956
aF-6.047689172430362
aF-6.035321266239066
aF-6.0293139650762235
aF-6.021872049422756
aF-6.014413995435632
aF-6.012303046839646
aF-6.006075803674669
aF-5.999817935996184
aF-5.993557238742861
aF-5.9923174193231965
aF-5.987180358046681
aF-5.982021754874157
aF-5.976416879549413
aF-5.9726129322635035
aF-5.968034331352033
aF-5.96314054981668
aF-5.958231920120177
aF-5.940972473182361
aF-5.934077747801833
aF-5.926674983795273
aF-5.919144388996912
aF-5.907632603278062
aF-5.902557670895964
aF-5.894828806634779
aF-5.884299756635
aF-5.882918185642428
aF-5.875912494827984
aF-5.868912234673115
aF-5.8774643124540855
aF-5.875487172975889
aF-5.872709677076633
aF-5.869935013373535
aF-5.85734603696023
aF-5.854912279988671
aF-5.850657729308558
aF-5.846053566776666
aF-5.827948338018764
aF-5.823933888133359
aF-5.816765289073759
aF-5.809602912855972
aF-5.786839623185248
aF-5.782666346590338
aF-5.773020708769636
aF-5.763391461845744
aF-5.754535111966172
aF-5.751948440204693
aF-5.743817380738513
aF-5.735666998087696
aF-5.738051610328203
aF-5.7360133638215665
aF-5.728624964387707
aF-5.726053926869245
aF-5.714408157445931
aF-5.71065793823694
aF-5.704670296288242
aF-5.698297192887633
aF-5.679543943031154
aF-5.676412312748834
aF-5.668524013014563
aF-5.660636754789985
aF-5.649027575312161
aF-5.640883511613186
aF-5.632250151282284
aF-5.623625356923759
aF-5.609789090631704
aF-5.609151354231576
aF-5.602467846484451
aF-5.594544532251099
aF-5.577197255180453
aF-5.575950596894899
aF-5.562188497571988
aF-5.559197629968583
aF-5.553536979938809
aF-5.546549211395186
aF-5.543223258648595
aF-5.537157602433146
aF-5.528009685445802
aF-5.521931355060808
aF-5.520757913559125
aF-5.5157789505051635
aF-5.510767673553133
aF-5.530324359127233
aF-5.511735968762255
aF-5.50816759397006
aF-5.500942983482281
aF-5.493891496380021
aF-5.491388368754961
aF-5.471023343504692
aF-5.46487322989708
aF-5.458303249732628
aF-5.438050253968921
aF-5.4293781582826846
aF-5.420312599591407
aF-5.4111520908150945
aF-5.413853384036914
aF-5.408058296539883
aF-5.39519830431297
aF-5.387886995455936
aF-5.387104760648583
aF-5.3864253269840745
aF-5.382018926315824
aF-5.390072511314745
aF-5.389374470123036
aF-5.388222305620907
aF-5.387032817934044
aF-5.368074265559282
aF-5.366395164914305
aF-5.361692752754367
aF-5.356971903012058
aF-5.339627868981845
aF-5.3347414050919175
aF-5.327758508341166
aF-5.3198601545186275
aF-5.293986982946362
aF-5.2862720409439365
aF-5.276311315193917
aF-5.265458589986102
aF-5.257879122394929
aF-5.249307264783711
aF-5.239587192490836
aF-5.2298350604695685
aF-5.2339182093981425
aF-5.228140818045367
aF-5.221824230109193
aF-5.215508728447994
aF-5.227655610018044
aF-5.225351425210901
aF-5.224792398323244
aF-5.222996338766699
aF-5.2268230868575545
aF-5.2267289721685
aF-5.226397195049335
aF-5.225993286175475
aF-5.2097522205628
aF-5.208600868471346
aF-5.205367971175898
aF-5.201900092465355
aF-5.183853878730162
aF-5.179507693488409
aF-5.174309459861911
aF-5.168171149125266
aF-5.166469451279433
aF-5.165424441503173
aF-5.161003398353229
aF-5.1565992457833625
aF-5.143769140640917
aF-5.138327329123474
aF-5.132228407568016
aF-5.126187467746111
aF-5.125083004029162
aF-5.120084903131105
aF-5.1150625134925
aF-5.110042452361254
aF-5.118037681728991
aF-5.1163266305566975
aF-5.114164572047452
aF-5.112014813108809
aF-5.1239332834827405
aF-5.124701554717399
aF-5.125483598764822
aF-5.104518635341837
aF-5.103935195716644
aF-5.099883254215602
aF-5.095820076507904
aF-5.043641208483553
aF-5.036965992221701
aF-5.031855242456627
aF-5.024940926231932
aF-5.029677907072898
aF-5.028724853181675
aF-5.024408559346151
aF-5.018378293238248
aF-5.044358824280531
aF-5.0448809385188635
aF-5.046397331522204
aF-5.047930127749085
aF-5.05376641966683
aF-5.0552784438014395
aF-5.0576418046842955
aF-5.06000716343233
aF-5.035044537511564
aF-5.0332296240302075
aF-5.029516865447677
aF-5.025809194603584
aF-5.002744528140966
aF-4.996812310397101
aF-4.988735566760132
aF-4.981608322041826
aF-4.968943092062102
aF-4.965641894568208
aF-4.958565938961028
aF-4.950772732733605
aF-4.938026108463012
aF-4.936042409401273
aF-4.928757507014611
aF-4.92124918191865
aF-4.9280173271667955
aF-4.926569713879921
aF-4.923507132911479
aF-4.919790932880446
aF-4.930945451477141
aF-4.930486498574652
aF-4.9300267594565526
aF-4.929565390828345
aF-4.913145839009287
aF-4.909260077773206
aF-4.905306509716609
aF-4.901480820208365
aF-4.892687023252016
aF-4.89048266691816
aF-4.886032331355929
aF-4.8815765612976225
aF-4.861961881778079
aF-4.854350707338015
aF-4.8467195716835105
aF-4.839087611942171
aF-4.857781329090278
aF-4.855617994680139
aF-4.853457427224092
aF-4.847265107000625
aF-4.846171146812768
aF-4.84339668035523
aF-4.840626883726934
aF-4.833656209607009
aF-4.832200255321657
aF-4.830937900802535
aF-4.827937542651814
aF-4.8182915282432335
aF-4.814942390327582
aF-4.810548121152889
aF-4.806167436964502
aF-4.791274715273142
aF-4.786482783449616
aF-4.7799513696414415
aF-4.77342703263051
aF-4.748596122888029
aF-4.744314584733594
aF-4.7404843608128076
aF-4.731755987483052
aF-4.7273834149438265
aF-4.723273444147113
aF-4.716256265410299
aF-4.709241753553433
aF-4.70447899447346
aF-4.701155273072172
aF-4.695253497475773
aF-4.6893523360054905
aF-4.704639913234123
aF-4.703579288453367
aF-4.702486280584411
aF-4.7013941989451755
aF-4.688615159480504
aF-4.684885636199645
aF-4.681140453660703
aF-4.677398684420845
aF-4.67141528578171
aF-4.66692514091845
aF-4.66302815295661
aF-4.658809776640339
aF-4.642117146738585
aF-4.635487424608333
aF-4.628582825641496
aF-4.621678751512356
aF-4.607214920133183
aF-4.603243545511951
aF-4.595505765254552
aF-4.587770243182469
aF-4.600198954581183
aF-4.596811175143154
aF-4.593355844183913
aF-4.590019774538671
aF-4.603296358340646
aF-4.603381325224712
aF-4.603466496928734
aF-4.604301472406641
aF-4.604470269449182
aF-4.60472703935364
aF-4.604984140129935
aF-4.569485834687983
aF-4.5557198661101115
aF-4.55148037395192
aF-4.514345829324494
aF-4.5093233609620045
aF-4.500591351651286
aF-4.492259561136598
aF-4.495892566426132
aF-4.490802520436448
aF-4.485166602201906
aF-4.486858374350415
aF-4.509555349460372
aF-4.5100957525854675
aF-4.510710545205084
aF-4.5113282249866895
aF-4.516051834573251
aF-4.517445840715313
aF-4.5188150664890205
aF-4.520042207196198
aF-4.487881492670246
aF-4.481945424188375
aF-4.476138805835019
aF-4.470253637303697
aF-4.4559573599222535
aF-4.449661601202033
aF-4.442465150267788
aF-4.436039345783218
aF-4.433723882467405
aF-4.428166625162978
aF-4.42226003604848
aF-4.413047483156724
aF-4.4114860733730765
aF-4.4082357366688205
aF-4.402563550200874
aF-4.3977631883328545
aF-4.395315773789335
aF-4.39074598250358
aF-4.385947962573976
aF-4.3978425951244144
aF-4.397652302342463
aF-4.397166276606786
aF-4.396655756252789
aF-4.3880082958245
aF-4.386660693724254
aF-4.384373176984862
aF-4.382096334556573
aF-4.365014257479739
aF-4.363163470321394
aF-4.358344197077129
aF-4.353286465200846
aF-4.336615327586632
aF-4.328156956509149
aF-4.323953127956587
aF-4.312032116366018
aF-4.310912728090065
aF-4.305393102319782
aF-4.291045634598336
aF-4.28753682586526
aF-4.280322400957332
aF-4.273105001993287
aF-4.292071458097302
aF-4.2917590361552165
aF-4.29120267466841
aF-4.290610810365412
aF-4.323937684420442
aF-4.325966634909433
aF-4.332613444665078
aF-4.339722184076583
aF-4.272819217025331
aF-4.266105244357499
aF-4.255814789066407
aF-4.245525980254747
aF-4.208888869273984
aF-4.194365324519701
aF-4.183427028656878
aF-4.168143853621631
aF-4.1862492338490185
aF-4.180253815360759
aF-4.1731044885316795
aF-4.165567899336853
aF-4.200952857740817
aF-4.203076027015722
aF-4.205635705539082
aF-4.208559353306118
aF-4.185368668619894
aF-4.181926300411704
aF-4.178799754795884
aF-4.17547879464332
aF-4.131405265411181
aF-4.120520534186107
aF-4.1082398447284
aF-4.0952021577576545
aF-4.0726812981007114
aF-4.05811881748552
aF-4.043338911721296
aF-4.028674341962205
aF-4.051334740925129
aF-4.046929743422284
aF-4.0411485656311505
aF-4.035141868806114
aF-4.059004559008901
aF-4.0593215510297425
aF-4.059839125186296
aF-4.060381207231851
aF-4.0499590337844005
aF-4.04795014742383
aF-4.045929652876282
aF-4.043911265238888
aF-4.008585661474547
aF-4.0072180516010505
aF-4.000912169337122
aF-3.993071594917565
aF-3.97543352536952
aF-3.965414337474503
aF-3.9553503761651267
aF-3.9447802298846066
aF-3.9419504213508945
aF-3.936916322385748
aF-3.925717912950384
aF-3.9065891793291674
aF-3.9041590520939815
aF-3.8987839132399262
aF-3.8870783790211245
aF-3.8793874596911295
aF-3.875212557324226
aF-3.8722325065965078
aF-3.8684921546150615
aF-3.862444886063336
aF-3.8561870813278287
aF-3.849937806096737
aF-3.845152859777953
aF-3.8395640271608658
aF-3.833723437532699
aF-3.8278829414336526
aF-3.816743294700892
aF-3.809867744221039
aF-3.8028456488908122
aF-3.795820040306597
aF-3.782291529645218
aF-3.7761381297372942
aF-3.768092599191673
aF-3.7599750449221716
aF-3.75271621135268
aF-3.744849541380668
aF-3.73589475202434
aF-3.729065622071112
aF-3.743970702360595
aF-3.7410820772278104
aF-3.7381841298028737
aF-3.7352912430508196
aF-3.7179412092194934
aF-3.7119216547651743
aF-3.7058631633386505
aF-3.699836579939597
aF-3.684009721652765
aF-3.6776305823980087
aF-3.669831074503282
aF-3.662028007413388
aF-3.6509327746489126
aF-3.6452580589690267
aF-3.6372519933100516
aF-3.6250704101285045
aF-3.619429088276508
aF-3.6110669364868913
aF-3.6026812339641103
aF-3.5882320825480214
aF-3.5819596137947602
aF-3.5727887848409887
aF-3.5627475234740595
aF-3.5709540060867693
aF-3.569999900046467
aF-3.5657297509120616
aF-3.561465994190962
aF-3.5534457428419945
aF-3.5504113812132347
aF-3.545676518061093
aF-3.5409178393725713
aF-3.5151893819370437
aF-3.5064695474583023
aF-3.49688444339341
aF-3.4872619461547525
aF-3.476173493061788
aF-3.466815817558608
aF-3.4567532427956382
aF-3.4471219167362417
aF-3.456094903349815
aF-3.453943553933293
aF-3.448947664622838
aF-3.444383170374433
aF-3.437538902558795
aF-3.4429214729866375
aF-3.44712595334974
aF-3.4430113912223836
aF-3.440518491188753
aF-3.4397559826685264
aF-3.4360169386511306
aF-3.432276906870239
aF-3.399135130724388
aF-3.4064390700390392
aF-3.3962262400045953
aF-3.385930271002903
aF-3.3751249279846807
aF-3.3657926223580485
aF-3.3556137731740665
aF-3.3454427857409534
aF-3.379479276147312
aF-3.3724516250806
aF-3.36634348935635
aF-3.359402575890697
aF-3.359227097563634
aF-3.3538135143137877
aF-3.348382503921254
aF-3.3429309590526106
aF-3.3353993577763656
aF-3.329531197742805
aF-3.3236304825598917
aF-3.366934825205873
aF-3.3529629932210643
aF-3.346799146762805
aF-3.3391559628202874
aF-3.3315030802185506
aF-3.337322838655359
aF-3.3325913070423465
aF-3.327836423190477
aF-3.2908398946577457
aF-3.2788445592803033
aF-3.2740699796109047
aF-3.268047302991753
aF-3.261996611458341
aF-3.2307968123645927
aF-3.219679161932935
aF-3.1582841369663193
aF-3.14535677368562
aF-3.1419030307598175
aF-3.132630431360885
aF-3.123480145730152
aF-3.120431626165508
aF-3.1185858810561693
aF-3.112278424606844
aF-3.105815564734713
aF-3.096761415571586
aF-3.091084021571694
aF-3.084248497474758
aF-3.0774345551364095
aF-3.0538406734593018
aF-3.0515684631461335
aF-3.0502107630583
aF-3.042405862392568
aF-3.026573447397166
aF-3.018576618592748
aF-3.009358530098815
aF-2.999914322894657
aF-2.994203836672101
aF-2.988316238275164
aF-2.9802709767283915
aF-2.972233912135021
aF-2.9619209924653416
aF-2.9559548243243015
aF-2.947880785609211
aF-2.9398117212580734
aF-2.943118883409004
aF-2.938885504503145
aF-2.9336818483629683
aF-2.928479857113055
aF-2.91073192172931
aF-2.9059761180652925
aF-2.898518032077396
aF-2.8910744788120173
aF-2.8690042172887233
aF-2.862613165318437
aF-2.852698995905247
aF-2.842764888214682
aF-2.8379539096629727
aF-2.832183803204784
aF-2.8239316875042118
aF-2.815708079028438
aF-2.8052643094957728
aF-2.8014463125265636
aF-2.7930874949862012
aF-2.7857437704694554
aF-2.790270818035877
aF-2.785100300973414
aF-2.7799127106661166
aF-2.7747294975819794
aF-2.771917235887273
aF-2.7672562140386843
aF-2.7619393954063085
aF-2.7578985084679006
aF-2.7414179339279174
aF-2.7349725590037943
aF-2.7279566859069106
aF-2.716881379283877
aF-2.7114100561475127
aF-2.703869978063512
aF-2.6963409025521257
aF-2.6897956019123184
aF-2.6848511858156856
aF-2.6780328707898997
aF-2.671227336187547
aF-2.6694809852530117
aF-2.665953769666487
aF-2.6607799406054236
aF-2.65555715398529
aF-2.6514511880116673
aF-2.650656521031228
aF-2.6465364560886373
aF-2.642241688222053
aF-2.6352305216424377
aF-2.6337212396682013
aF-2.6295065551945855
aF-2.625304040992294
aF-2.6176346019092533
aF-2.6157847520190898
aF-2.612187733168907
aF-2.6079521876269993
aF-2.609087557215844
aF-2.60680250854493
aF-2.603956897865221
aF-2.601113790812171
aF-2.5689769527567523
aF-2.5592427394979014
aF-2.549455872950186
aF-2.5397113792050905
aF-2.549276350529074
aF-2.5464512991428725
aF-2.541670863596873
aF-2.536877323081969
aF-2.5319842384665003
aF-2.527177152545571
aF-2.5223660785408555
aF-2.5175496678249853
aF-2.513938001117774
aF-2.509390095950254
aF-2.504839495932834
aF-2.497767754582844
aF-2.4820536632805608
aF-2.4792652446456973
aF-2.4772621996543096
aF-2.472075330352834
aF-2.4703672164319723
aF-2.4680029957934506
aF-2.465239811111726
aF-2.4609787817535818
aF-2.4678960871649593
aF-2.466000802516893
aF-2.4640961679887523
aF-2.4621889599594176
aF-2.4533927005180853
aF-2.4500666627787853
aF-2.4467321793510064
aF-2.443386096465
aF-2.425318358134501
aF-2.4189760646189917
aF-2.412586795876728
aF-2.3986520749660283
aF-2.395545593265573
aF-2.388254402710995
aF-2.3809922889902895
aF-2.3858562902005263
aF-2.38351038527391
aF-2.383071990830439
aF-2.379876629408317
aF-2.372262804310766
aF-2.371587863048465
aF-2.3517091062406013
aF-2.350477848936586
aF-2.336803234036762
aF-2.3337773156965977
aF-2.3297126022409222
aF-2.3256527288512965
aF-2.320714439154356
aF-2.315575585763578
aF-2.315020188500822
aF-2.3109028757583947
aF-2.285585006341486
aF-2.2835116499940797
aF-2.2755170311809763
aF-2.2519490553506776
aF-2.2489039149228987
aF-2.241151090919599
aF-2.2355787710806654
aF-2.2291750870651152
aF-2.238358639878349
aF-2.236300918736681
aF-2.2338051961273804
aF-2.2241090811365
aF-2.2258364443912297
aF-2.2256910929908567
aF-2.2248440359209734
aF-2.2238275316553047
aF-2.216422126270737
aF-2.214009625037347
aF-2.210484907835871
aF-2.2084537095667183
aF-2.1847526229656475
aF-2.177296173982359
aF-2.168464139542362
aF-2.1624547241750665
aF-2.154799119266203
aF-2.1485674506047
aF-2.1411074147837827
aF-2.1339037443208504
aF-2.1478890231661314
aF-2.1456555821025924
aF-2.1433110232163526
aF-2.1409691066461596
aF-2.1500299424388984
aF-2.150251040941848
aF-2.150479048967165
aF-2.1506960700975064
aF-2.1408507723822754
aF-2.139653826611809
aF-2.1377797301750063
aF-2.135911682132394
aF-2.0978725114889514
aF-2.086935300808985
aF-2.0781716229167886
aF-2.068226714916586
aF-2.074461906634853
aF-2.068486258935211
aF-2.062198690651959
aF-2.055917009086714
aF-2.059468775948212
aF-2.055325111210158
aF-2.051166297633178
aF-2.04701405243312
aF-2.053223534995857
aF-2.0513016784319986
aF-2.049372185290691
aF-2.047444389166595
aF-2.037545219208728
aF-2.0339426197325023
aF-2.0303223170291815
aF-2.0267059515930477
aF-2.020580197802694
aF-2.0161627082037277
aF-2.012283098002006
aF-2.0081600524336687
aF-2.0049929428570277
aF-2.0047207609161086
aF-2.0016177427780226
aF-1.9983474486101573
aF-1.997623438076023
aF-1.9948946335458162
aF-1.9921562530711168
aF-1.9893751971916132
aF-1.9820179818436205
aF-1.9780816547685458
aF-1.9746389408177603
aF-1.9618484009257977
aF-1.958044028793482
aF-1.9521056445234017
aF-1.9469000427884198
aF-1.9253303465042944
aF-1.921847415544339
aF-1.9134590520731731
aF-1.905059439150397
aF-1.903179473951965
aF-1.8984309489190236
aF-1.8920653160938201
aF-1.8857035773380915
aF-1.8796824712401192
aF-1.875765020278925
aF-1.8699574160814552
aF-1.864141025338781
aF-1.8626581146821692
aF-1.8603152701344317
aF-1.8556148282995695
aF-1.8517630283849376
aF-1.8447200106073007
aF-1.8423918448350414
aF-1.8379606942678093
aF-1.833522816847074
aF-1.818458355753828
aF-1.8131370631358632
aF-1.8064701599726058
aF-1.7997851147050814
aF-1.7898531952788224
aF-1.7861913232570898
aF-1.7819382648103577
aF-1.7756047529724335
aF-1.7544545430897158
aF-1.752542814908856
aF-1.7441975885649896
aF-1.7330103905013914
aF-1.730464500602693
aF-1.7254462800983579
aF-1.7183795895615057
aF-1.7110708254916116
aF-1.7003938434614554
aF-1.6975803821810325
aF-1.6826197721445224
aF-1.650196218096802
aF-1.6439596804667262
aF-1.638110885614248
aF-1.6525084062464641
aF-1.6514580891117174
aF-1.64833559051558
aF-1.6548551578634751
aF-1.6432708285772653
aF-1.638146223311511
aF-1.636701873185144
aF-1.6356563528938748
aF-1.6215832631688936
aF-1.6152247939378972
aF-1.6085435186329726
aF-1.5833656539617578
aF-1.5677487759492728
aF-1.561517126927261
aF-1.5562188602169855
aF-1.5483852396459163
aF-1.542000409011441
aF-1.5386585734783127
aF-1.532104359034374
aF-1.5252799351659871
aF-1.5215518718305674
aF-1.5170117742640616
aF-1.5113174945502568
aF-1.5243220719070154
aF-1.5164616711082735
aF-1.51160107451869
aF-1.50588335470729
aF-1.4998555080379066
aF-1.4667885500007283
aF-1.455329726475687
aF-1.4519492678328174
aF-1.4510311600304961
aF-1.445852740698616
aF-1.4388904771146156
aF-1.4289004387183906
aF-1.4270272746202113
aF-1.4202230353583216
aF-1.4134294373732912
aF-1.3892842918015682
aF-1.3864315711071917
aF-1.3809903062801145
aF-1.3722165550587464
aF-1.358054443619688
aF-1.353138220727726
aF-1.34406123440718
aF-1.3345826288736446
aF-1.324018163703547
aF-1.3234069828212862
aF-1.316758755861942
aF-1.3091480117821068
aF-1.3049797453875054
aF-1.3029449278548477
aF-1.2972737081533652
aF-1.2914508231518633
aF-1.2916485289537791
aF-1.289081056499824
aF-1.285073152094387
aF-1.2807944742750499
aF-1.2608599212617206
aF-1.2560893190961842
aF-1.2487818472058616
aF-1.241467764389534
aF-1.224204152396
aF-1.223328749547974
aF-1.2181542840374155
aF-1.2106154983455646
aF-1.1962749918108029
aF-1.1944224930137803
aF-1.1866515126916395
aF-1.1785519862775637
aF-1.165221729594427
aF-1.162202652043409
aF-1.1542178775595255
aF-1.1462478284134228
aF-1.1453285893129288
aF-1.1417483291702457
aF-1.136350002357246
aF-1.1300718616695162
aF-1.1266204282134376
aF-1.1232498088211973
aF-1.1183010198504335
aF-1.1131386828543672
aF-1.0997185221015902
aF-1.0942108395932801
aF-1.0874950414370483
aF-1.0807818510341178
aF-1.0669916933972434
aF-1.0626105884861614
aF-1.0554575505534696
aF-1.0476534303277851
aF-1.0286541098232336
aF-1.017506425160311
aF-1.0081403755716227
aF-0.9971616213587056
aF-1.0009080965175206
aF-0.9944269081444519
aF-0.9873686802042483
aF-0.9802830359741211
aF-0.9775854192295009
aF-0.9712757723217451
aF-0.965488743268514
aF-0.959430986350594
aF-0.9507804376306879
aF-0.9441507643150424
aF-0.9374939036353087
aF-0.9302409959108012
aF-0.9244383552507914
aF-0.9178899371035261
aF-0.9113026127156494
aF-0.904729618046725
aF-0.9024982199016669
aF-0.8967039844030369
aF-0.8913989363092096
aF-0.8858433396517668
aF-0.8675274645423496
aF-0.8590377438152728
aF-0.8505169694113976
aF-0.8415708516715295
aF-0.8431299343190809
aF-0.8368718558704645
aF-0.8305849245679621
aF-0.8243138774149857
aF-0.8157225707649666
aF-0.8087152244191596
aF-0.8022647888566601
aF-0.7954913200784313
aF-0.7843860400906658
aF-0.7781095437542832
aF-0.7706134482668036
aF-0.7627624491566709
aF-0.7635524387151139
aF-0.7578868176446604
aF-0.7521993320429333
aF-0.7465202418751706
aF-0.7308995483081695
aF-0.7232103299503996
aF-0.7157591284829359
aF-0.7079409413095538
aF-0.7149602303239694
aF-0.710500887561782
aF-0.7060341384124531
aF-0.7013544645777243
aF-0.6774629779911833
aF-0.6764321141516579
aF-0.668371334596305
aF-0.6614615351970364
aF-0.6536801077192507
aF-0.6456761941816032
aF-0.6378441291048567
aF-0.6296786907199478
aF-0.6278767405972929
aF-0.8092408646540697
aF-0.8025658827541958
aF-0.7954388188552679
aF-0.793368068058103
aF-0.7876484649102876
aF-0.7818927018295506
aF-0.7758810786672151
aF-0.7701716044718507
aF-0.7626008968333291
aF-0.7585869539622778
aF-0.7527881910158197
aF-0.7489328431637108
aF-0.7435814214515326
aF-0.7382071656002186
aF-0.7228059795080011
aF-0.7114717842600229
aF-0.7049701900753258
aF-0.6983268409185828
aF-0.6916840232765458
aF-0.6758004126666924
aF-0.49299284569302626
aF-0.4854968424293863
aF-0.47684572993619
aF-0.4717181442118197
aF-0.46559018973552146
aF-0.45803057161206584
aF-0.38244520808015936
aF-0.36727171723150587
aF-0.3649022699897677
aF-0.35689969337775607
aF-0.34892114948833186
aF-0.3556535203039959
aF-0.35081206036279
aF-0.3462005941856774
aF-0.34145687779391753
aF-0.3374510193594715
aF-0.3332251020681303
aF-0.3288132377060744
aF-0.32418315744902393
aF-0.3118964981422201
aF-0.30572093296040426
aF-0.29951220548019064
aF-0.2932826863567122
aF-0.27867378266662746
aF-0.2740206731979564
aF-0.26694603011465845
aF-0.2595660029335005
aF-0.2632671561520046
aF-0.2583063139369459
aF-0.25331529266462427
aF-0.2481100040776787
aF-0.2444032483945311
aF-0.23966489839177307
aF-0.23490913980575456
aF-0.23016045880768488
aF-0.23529725562908976
aF-0.23248737521135565
aF-0.22997445022988328
aF-0.22731650644063706
aF-0.196163853444415
aF-0.18751847040349867
aF-0.178838288983032
aF-0.16967381274935556
aF-0.16318817665554763
aF-0.1548993370476739
aF-0.14655607415270655
aF-0.13828153895403217
aF-0.1381317086973084
aF-0.13123673641466094
aF-0.12491201504623373
aF-0.11830001088654996
aF-0.11576598066546229
aF-0.1139236643191639
aF-0.11042485699408422
aF-0.1053432591183816
aF-0.09485396779999
aF-0.08881703761633575
aF-0.08275442528227739
aF-0.0766717328532851
aF-0.07014357724699094
aF-0.06703021268789788
aF-0.06171741834137512
aF-0.056129597327453595
aF-0.03876528866659634
aF-0.03279275075403043
aF-0.025146587892959094
aF-0.01681921361477401
aF-0.008597228642475807
aF-0.0007159504519511639
aF0.007204430803725348
aF0.015115155027117355
aF0.030280486795388306
aF0.037233340067946985
aF0.045663797023310915
aF0.05477008591126298
aF0.05083524811341955
aF0.05232873650048675
aF0.05783727512403192
aF0.06366773126992697
aF0.055444878968536004
aF0.05823354485898746
aF0.061058973099743064
aF0.06393052363810114
aF0.08642588862068767
aF0.09539835100233973
aF0.09831518571869657
aF0.10376771415817077
aF0.10413369696481478
aF0.10834093674935774
aF0.11396233283978696
aF0.10907227746655312
aF0.10942639162726331
aF0.1106709407403994
aF0.11290913001172931
aF0.11521225538450919
aF0.1103556093420408
aF0.11072301737839063
aF0.1114261750169463
aF0.11922744556350495
aF0.1208610999058004
aF0.12319724254744524
aF0.12553637872060808
aF0.1419827801875646
aF0.14430754068067198
aF0.14946916900005536
aF0.15462258312854726
aF0.14884797476974776
aF0.15029207362325558
aF0.15263609308565473
aF0.15476933808583104
aF0.1604852221069959
aF0.16292895165647914
aF0.16589708363211453
aF0.16885669317809882
aF0.13285005534083738
aF0.1298833863443012
aF0.1249318901894616
aF0.11919872730805436
aF0.1481474646399692
aF0.14978476573204502
aF0.15238509262183197
aF0.15472599994402136
aF0.1713884212557062
aF0.17402736125450935
aF0.1791951408688004
aF0.1865666302693907
aF0.203006383330671
aF0.2065698875268025
aF0.21381038259513452
aF0.22069529736223692
aF0.18484387751915565
aF0.18373205741106702
aF0.18074642344103964
aF0.17738122421117075
aF0.16762252583265047
aF0.15477937442453338
aF0.14989442540445608
aF0.14444264433353227
aF0.1679750799354709
aF0.16898085811371533
aF0.17059187875338666
aF0.17211359807785787
aF0.16856059410072133
aF0.16890072156075475
aF0.16932174984172677
aF0.16970553430433188
aF0.18042942649753768
aF0.18108377528660347
aF0.18350105533547456
aF0.18593143418004576
aF0.15616238320355413
aF0.15432721694664564
aF0.14981315112944937
aF0.1454550036584088
aF0.13703067411426084
aF0.13299425057504588
aF0.12767506393536898
aF0.1228085536392387
aF0.11502427809093718
aF0.10931770597175805
aF0.10360169050397183
aF0.097889813646592
aF0.10290542712916984
aF0.09985975000895042
aF0.09665618022798816
aF0.09344441838708639
aF0.10354924410114563
aF0.10338344964895363
aF0.10320921329496202
aF0.10304648904877767
aF0.10528366130801703
aF0.10554337693585247
aF0.10589749106925894
aF0.10625251917540712
aF0.1120299368522959
aF0.11334525742905854
aF0.1148915509789048
aF0.11642370659363488
aF0.09380506009971068
aF0.09234486682645593
aF0.08848114776576765
aF0.08530678181340101
aF0.1022037542293055
aF0.10313740122478121
aF0.10344705742716842
aF0.10433240221363915
aF0.09271750253787792
aF0.09093458035607149
aF0.08909016608026521
aF0.0872356143596329
aF0.08875681102013577
aF0.0883997134430754
aF0.08738243359373143
aF0.08646746616257261
aF0.0777797191818832
aF0.0761317756717994
aF0.07452921715632499
aF0.07218238976708036
aF0.06051301878066373
aF0.05820345850744979
aF0.05419556907634737
aF0.050187519318124485
aF0.030388749778364366
aF0.026602167987041847
aF0.0194993990780854
aF0.01300727163927462
aF0.05710566500676939
aF0.06147159364934285
aF0.06584860515102697
aF0.07022619443209654
aF0.06732464297488083
aF0.06887209790097981
aF0.0714469432518654
aF0.07400381499292608
aF0.06486695099033968
aF0.06486140547572883
aF0.06484884498597032
aF0.06483581925911674
aF0.0555347244953015
aF0.05435724241868933
aF0.05243021151523619
aF0.05050950611315508
aF0.04749027582894971
aF0.04609311383471271
aF0.04406348807312166
aF0.042021158847716844
aF0.033437290710549794
aF0.03248061632211896
aF0.029254418162604434
aF0.026412551746684665
aF0.02613333679395735
aF0.024490853349265596
aF0.022218345665551142
aF0.01993989547472874
aF0.03482034674208534
aF0.036232155318313364
aF0.03772933286152691
aF0.03922992012088211
aF0.03230454005732675
aF0.031952598862954984
aF0.03158384296922767
aF0.03125021592790955
aF0.020411983771738473
aF0.017764105673115926
aF0.01511463862518192
aF0.012471029503711595
aF0.012331265250244972
aF0.01033699486983064
aF0.00825879189510026
aF0.006179848656679976
aF0.023732070425854124
aF0.025382773623456423
aF0.027620568801542955
aF0.029531815728283783
aF0.025747046388419292
aF0.02654474559906439
aF0.027339999642138624
aF0.028210013247243815
aF0.04131086662595851
aF0.044475432750113564
aF0.04943819419785256
aF0.04954679717105015
aF0.01422285157804426
aF0.011650653873709116
aF0.006858588354166084
aF0.002452431607643746
aF-0.019758306336206788
aF-0.022204412035115473
aF-0.02447276491135386
aF-0.027144190634979637
aF-0.02856606826625785
aF-0.025724230091449307
aF-0.02794158535393798
aF-0.030289894098857406
aF-0.0034469821867753048
aF0.0005621816517837885
aF0.004815804596276285
aF0.008687125150955488
aF0.004408675128035
aF0.006600890688509775
aF0.008851885318482466
aF0.011053202296145814
aF-0.0010559022007319285
aF-0.0019174622100868177
aF-0.0028053702324406515
aF-0.0037020981057356295
aF-0.030844351708090967
aF-0.037357122046383306
aF-0.04437944995951759
aF-0.0505967992681422
aF-0.07940652008260818
aF-0.09080307146763023
aF-0.10225000552523067
aF-0.11398395150146001
aF-0.058176609128224754
aF-0.05535882632662781
aF-0.052320846446042735
aF-0.04926829012190792
aF-0.012480245062087336
aF-0.002277930857437216
aF0.008966152903683522
aF0.018512627137773574
aF0.017883630533366057
aF0.022602424961645218
aF0.030020261173748786
aF0.037461566279794356
aF0.007857046430370884
aF0.007626447775615608
aF0.007140556862319736
aF0.006654869996273183
aF-0.01169257256761469
aF-0.012267382485091405
aF-0.01607992688720139
aF-0.019646335963578565
aF-0.01672486742402768
aF-0.0182578462960028
aF-0.02037706043163201
aF-0.02251262565988954
aF-0.028569437037667456
aF-0.03131046000430593
aF-0.03426086330625333
aF-0.03721805930131761
aF-0.01971898186224208
aF-0.01821647952561567
aF-0.01663388667716248
aF-0.015206640402916305
aF-0.02086690639749511
aF-0.02091837550395459
aF-0.020969793797333658
aF-0.021021586372428347
aF-0.028152400969496005
aF-0.02963113657241756
aF-0.031192332666162503
aF-0.032761789817724596
aF-0.02979574113982575
aF-0.030398505774299922
aF-0.031031565790245574
aF-0.031605517223665114
aF-0.022580410234200876
aF-0.0222168964125542
aF-0.020988613425352298
aF-0.01971079682721233
aF-0.010142317735184925
aF-0.008660471614967191
aF-0.0060805067576854555
aF-0.003389484452176461
aF0.00016289280428760655
aF0.0030263792241660425
aF0.0060163857627508754
aF0.00885708113551198
aF-0.006304359227026213
aF-0.0065823459797009765
aF-0.006914842749181638
aF-0.0075280544905116376
aF-0.01674000180833657
aF-0.0185076513640543
aF-0.02077765333527859
aF-0.023001026586190187
aF-0.023143980549649834
aF-0.023620301069803062
aF-0.02510103168238964
aF-0.01809405827487276
aF-0.018035276834554637
aF-0.017526194019213737
aF-0.01723918316491546
asS'x'
p3
(lp4
F-6.468676053957066
aF-6.471807506946917
aF-6.474936744631436
aF-6.48166840195699
aF-6.484219762411067
aF-6.488486283764991
aF-6.491564868148257
aF-6.483687015988403
aF-6.484233948320231
aF-6.485269220471938
aF-6.48629999981464
aF-6.4803874982766345
aF-6.48019014546533
aF-6.479770362588293
aF-6.4793563155105645
aF-6.488794386887767
aF-6.4902960743673335
aF-6.491985573054331
aF-6.493670454151253
aF-6.499791999663491
aF-6.502375452802341
aF-6.505000182503761
aF-6.507618342378542
aF-6.504893823277188
aF-6.5063750810487795
aF-6.507873990953672
aF-6.509372535476777
aF-6.5107536853937455
aF-6.51147075651857
aF-6.512814782736702
aF-6.514156047724418
aF-6.4943715969008196
aF-6.492209613133854
aF-6.489337326219436
aF-6.457025011648227
aF-6.453051192701723
aF-6.443864588993716
aF-6.43480422050229
aF-6.454368798677747
aF-6.453599216537325
aF-6.451943486041811
aF-6.45028786817066
aF-6.4572186741127755
aF-6.457451410294539
aF-6.457879074213058
aF-6.45830849846118
aF-6.447026668483286
aF-6.445631869111078
aF-6.443411241379112
aF-6.441186938790581
aF-6.414146671013527
aF-6.4094182055169355
aF-6.401932632310428
aF-6.394445620550396
aF-6.380804688169287
aF-6.375052935386011
aF-6.366733788570864
aF-6.358404981382699
aF-6.368117289343581
aF-6.363990267430446
aF-6.359856956495041
aF-6.355715519480864
aF-6.36512320878344
aF-6.364105316124903
aF-6.363053368454169
aF-6.362001210385484
aF-6.3286383972499225
aF-6.315145535629181
aF-6.313237504985438
aF-6.291878576612495
aF-6.282956902579304
aF-6.272864275742662
aF-6.261946799878662
aF-6.250848398095126
aF-6.244139212641023
aF-6.234322404967489
aF-6.224495386221046
aF-6.232635460734199
aF-6.227670505914772
aF-6.222442188872291
aF-6.216702699999962
aF-6.202895059081479
aF-6.197883134876058
aF-6.190885454383507
aF-6.183315970698806
aF-6.1883326822042
aF-6.184179984202735
aF-6.179605737708004
aF-6.153036646516273
aF-6.149919075713549
aF-6.139923609857976
aF-6.131664583164526
aF-6.10541284367291
aF-6.1027613775791485
aF-6.0972999930514336
aF-6.086965301345068
aF-6.042767251668404
aF-6.04204680132411
aF-6.035685582069471
aF-6.028198717568804
aF-6.010035767297983
aF-6.005844754273117
aF-5.9961957552836145
aF-5.989086910633119
aF-6.001263654232336
aF-5.999882517639008
aF-5.9964944459423535
aF-5.9931101957918544
aF-5.982438363266438
aF-5.981716106575164
aF-5.9809522500608905
aF-5.977239217091003
aF-5.939694209740016
aF-5.931848040054406
aF-5.921235538974884
aF-5.913167901467003
aF-5.875937555132314
aF-5.869997914434521
aF-5.855756065844731
aF-5.840283154187514
aF-5.831168547699211
aF-5.822111010872278
aF-5.809841657293357
aF-5.797398875550943
aF-5.7986402812842
aF-5.794334601494553
aF-5.786429997495827
aF-5.778934014700337
aF-5.780430131486829
aF-5.778141190487281
aF-5.772759058050841
aF-5.767382113077076
aF-5.752809113515749
aF-5.746150727042209
aF-5.738869392524835
aF-5.731339422697749
aF-5.714896480660253
aF-5.7105696736874005
aF-5.701730359871617
aF-5.694309666373923
aF-5.6906744255990285
aF-5.683347642227364
aF-5.676056600405664
aF-5.668702131980955
aF-5.646825850087872
aF-5.637471644284003
aF-5.628626898709635
aF-5.618613082724218
aF-5.611178577167585
aF-5.601725329903868
aF-5.591465308907388
aF-5.58277801150356
aF-5.578237955072201
aF-5.5753696468267355
aF-5.573526779364585
aF-5.557864316854419
aF-5.553841051632973
aF-5.546137361546194
aF-5.538845956156028
aF-5.517025780342904
aF-5.509027717647379
aF-5.498375216303861
aF-5.486824330238117
aF-5.4896841183570775
aF-5.484176398102563
aF-5.475496485515652
aF-5.469933591497386
aF-5.45882499182593
aF-5.4537324557720686
aF-5.446916597114592
aF-5.439519423314041
aF-5.4257121213175115
aF-5.419344731324263
aF-5.418174838573182
aF-5.4120284270749766
aF-5.417980000391085
aF-5.41552949504326
aF-5.4118051400886715
aF-5.408106682720837
aF-5.4077931409510365
aF-5.405327703012882
aF-5.4027965362814525
aF-5.400030530656559
aF-5.358192319783394
aF-5.351368179517363
aF-5.339784075137488
aF-5.3281144629481
aF-5.313717798880643
aF-5.3023783329568355
aF-5.29041833802361
aF-5.278470249673057
aF-5.2905392834430875
aF-5.2845348169857305
aF-5.2788566982171705
aF-5.2726796091234265
aF-5.286021939374607
aF-5.284479882354404
aF-5.2827564772487525
aF-5.281085624458904
aF-5.266842670336358
aF-5.262778643878534
aF-5.2583039110623035
aF-5.253822981473003
aF-5.24014524715604
aF-5.2346102801439125
aF-5.228198278663409
aF-5.22177742316003
aF-5.1836785367259965
aF-5.170140346710258
aF-5.156507213219278
aF-5.141748608475159
aF-5.135804932001196
aF-5.13215876857072
aF-5.121560045178132
aF-5.111052678792931
aF-5.102039586061358
aF-5.096746244866963
aF-5.08840453492081
aF-5.079237072397641
aF-5.057784659979237
aF-5.050957815535991
aF-5.039117905514111
aF-5.028270201284444
aF-5.0088761228864715
aF-5.001111964173615
aF-4.989164492084975
aF-4.97712712671629
aF-4.952036128019382
aF-4.93955975400556
aF-4.926140784755617
aF-4.911810141928472
aF-4.939781354414267
aF-4.936026765970698
aF-4.933598317774852
aF-4.928830550389714
aF-4.934616022706796
aF-4.932456104466735
aF-4.930155825783172
aF-4.927860768445597
aF-4.922709539768854
aF-4.919676725742453
aF-4.9170623453428846
aF-4.914179984412174
aF-4.89206702106181
aF-4.888723884496653
aF-4.882385994943389
aF-4.875591528626972
aF-4.815212107757175
aF-4.813512974400132
aF-4.8003985797692375
aF-4.785698009479359
aF-4.7516993125446705
aF-4.7389403003928665
aF-4.722560726258258
aF-4.704985726538203
aF-4.729882236308276
aF-4.725026368240675
aF-4.713601539011718
aF-4.707927225016017
aF-4.838089113769416
aF-4.846956084286049
aF-4.865894036053706
aF-4.8492197257273855
aF-4.863635577751586
aF-4.87126668900801
aF-4.878784390775125
aF-4.886685276622487
aF-4.811994120309374
aF-4.803367154857829
aF-4.794578977139675
aF-4.6626761484863195
aF-4.658670552206372
aF-4.6083846415959435
aF-4.576572046344479
aF-4.469736490874998
aF-4.4475645491444125
aF-4.398533691106095
aF-4.356837555598846
aF-4.385210525024651
aF-4.358052732410569
aF-4.343607262753684
aF-4.318368268435572
aF-4.401528989177485
aF-4.402312388204358
aF-4.40341732535054
aF-4.404568766476783
aF-4.511287581411694
aF-4.529501599759069
aF-4.555265127708948
aF-4.582191463474931
aF-4.5449503414682555
aF-4.54820360571162
aF-4.55756057194446
aF-4.566692675945335
aF-4.510202404570409
aF-4.5087404548238
aF-4.503400525267251
aF-4.498056613596463
aF-4.421714112572741
aF-4.408983419200496
aF-4.387769393635877
aF-4.367332335354465
aF-4.28611867566954
aF-4.268635544668165
aF-4.237131062278833
aF-4.205768756980895
aF-4.142873453264751
aF-4.115885411752072
aF-4.07935301477934
aF-4.042817990437698
aF-4.1164561672219495
aF-4.115726601728663
aF-4.109452537821222
aF-4.101156649166575
aF-4.1840196082180405
aF-4.191132809616072
aF-4.202161677303639
aF-4.214460956077534
aF-4.241992614949372
aF-4.254828318717624
aF-4.269426999652164
aF-4.284101035481666
aF-4.224917950511397
aF-4.223129167219241
aF-4.221185332833029
aF-4.219540927009778
aF-4.158253525824552
aF-4.147587242664463
aF-4.1334230891418
aF-4.119263752529592
aF-4.056292056861796
aF-4.0404154153729275
aF-4.017154328346342
aF-3.9939745023536073
aF-3.9803615544546194
aF-3.96091628672316
aF-3.9383190325296376
aF-3.9192229386985398
aF-3.9375966265801825
aF-3.931635042130873
aF-3.92035034162042
aF-3.909238388255627
aF-3.9659621763787403
aF-3.966450069810512
aF-3.969006878820455
aF-3.971590664870914
aF-3.9901578996761433
aF-3.9936100179937712
aF-3.9991646284333964
aF-4.004300264389163
aF-3.942237994520772
aF-3.933640945819591
aF-3.924929733634688
aF-3.9150797165417046
aF-3.9008631329433934
aF-3.891829562021816
aF-3.8819493842714907
aF-3.872047454033275
aF-3.820323092922079
aF-3.8027905283304326
aF-3.783266675626412
aF-3.7662984504972368
aF-3.786161424501734
aF-3.776013348551496
aF-3.7647155997761237
aF-3.7631030066677766
aF-3.756803543512164
aF-3.7496956411495495
aF-3.742027283291625
aF-3.7374511555352274
aF-3.7336175939428218
aF-3.7273702917132185
aF-3.720247204826853
aF-3.704965539773327
aF-3.7005392128929246
aF-3.6926378905011985
aF-3.684784902923833
aF-3.7056156287184967
aF-3.7055768438355416
aF-3.705548686107237
aF-3.705117755245255
aF-3.6969712034125006
aF-3.6950576933172226
aF-3.6927870042648223
aF-3.6903052959065787
aF-3.698503836884017
aF-3.6985237604269168
aF-3.698721118261491
aF-3.698924711813752
aF-3.7390619759490704
aF-3.744682683404518
aF-3.752804928706805
aF-3.761658689038911
aF-3.7527814607472756
aF-3.753466361968848
aF-3.757278529712277
aF-3.7614256270089053
aF-3.7286456202107514
aF-3.727262192838934
aF-3.7255517590185123
aF-3.7218560018129576
aF-3.7337386014637906
aF-3.733677783146258
aF-3.7336629890902504
aF-3.733609409227161
aF-3.7372449268818446
aF-3.7379396236111884
aF-3.738725776308799
aF-3.7395756339684514
aF-3.714336281175699
aF-3.7098093781244588
aF-3.7047506859769594
aF-3.6991994877176033
aF-3.689596218860494
aF-3.6833896219026148
aF-3.6777682135405243
aF-3.671645754139681
aF-3.6928047413514378
aF-3.6928283040442746
aF-3.692895635556571
aF-3.6930053703487538
aF-3.6942754044239186
aF-3.6947418183727265
aF-3.693421235119695
aF-3.692356778461841
aF-3.6856900071860954
aF-3.683611098654625
aF-3.6808007005301846
aF-3.6687732365098835
aF-3.664322441858106
aF-3.663617200327348
aF-3.662159953807601
aF-3.6597154787252464
aF-3.6547433584784352
aF-3.6524930888680665
aF-3.6476007164879647
aF-3.64277809992437
aF-3.6536453815574808
aF-3.653554318731092
aF-3.6534058799358444
aF-3.653239838507176
aF-3.6144650885189105
aF-3.607324663974145
aF-3.5993683255527893
aF-3.5910077345119538
aF-3.5529351289356854
aF-3.5407396471383628
aF-3.5264702134323533
aF-3.5121992368624673
aF-3.521842797557211
aF-3.5199806075346194
aF-3.515243401295722
aF-3.5080953467661264
aF-3.553399841849842
aF-3.5546792793045467
aF-3.5584518333012847
aF-3.5626296767418926
aF-3.561872045120284
aF-3.562504224641919
aF-3.5650415013540075
aF-3.5675820409150267
aF-3.5644279561653005
aF-3.5653667030114367
aF-3.5664499547127404
aF-3.567632956310792
aF-3.5669965352663784
aF-3.567763736315528
aF-3.568548941816988
aF-3.5693092204539907
aF-3.509664985256192
aF-3.4971376410527273
aF-3.484534636144565
aF-3.472036210697507
aF-3.483022846068833
aF-3.476746676933479
aF-3.4708228007815434
aF-3.4638769052549234
aF-3.510074995238501
aF-3.5134601762605473
aF-3.5182352206903684
aF-3.523406473466173
aF-3.565382106477289
aF-3.5736642046554223
aF-3.585894543060798
aF-3.598114706597909
aF-3.5696258183780465
aF-3.5722889976176324
aF-3.5747261896510167
aF-3.5776881316377844
aF-3.503825527280325
aF-3.49127698353419
aF-3.477144900034404
aF-3.4622587791797277
aF-3.4817701533776044
aF-3.4800911469575473
aF-3.4759240340058852
aF-3.470385391229843
aF-3.505983273477142
aF-3.50878359056141
aF-3.5106018135651156
aF-3.5137124492426635
aF-3.5160358236349123
aF-3.5180414283215384
aF-3.520909586770884
aF-3.5240386049372954
aF-3.511599253377761
aF-3.5114993880027505
aF-3.511155778188861
aF-3.5106888807833783
aF-3.4973343739575986
aF-3.494262178330999
aF-3.490993416856707
aF-3.4906106468045506
aF-3.464344067358966
aF-3.4635097103249386
aF-3.45679847904886
aF-3.4491601588820373
aF-3.4725458488633443
aF-3.472536863143447
aF-3.4725118473128616
aF-3.4724869951524187
aF-3.498999215129176
aF-3.5011236155418572
aF-3.5032233320727912
aF-3.5181690920061794
aF-3.518639835708479
aF-3.5218623028617837
aF-3.527012573637354
aF-3.5192011953464872
aF-3.521046493805285
aF-3.523097160673939
aF-3.5251480899104117
aF-3.510239761253498
aF-3.508901742510628
aF-3.5070818826937438
aF-3.505261862726633
aF-3.4812243801008447
aF-3.475453481875818
aF-3.468372955669841
aF-3.4612916649810894
aF-3.468468691617139
aF-3.4651905226846527
aF-3.461105457534172
aF-3.457542712096294
aF-3.5026733566424704
aF-3.507592703401748
aF-3.5151695499401905
aF-3.5227490626434466
aF-3.527449193245145
aF-3.5295084055304944
aF-3.535839108177269
aF-3.5394183187498847
aF-3.5239464916473486
aF-3.5237459011269476
aF-3.523501863563136
aF-3.5235326089262746
aF-3.5237330276394347
aF-3.52375833116537
aF-3.5238013473409424
aF-3.5238596424923156
aF-3.486255398186861
aF-3.4812792326552158
aF-3.4729823456368205
aF-3.464653095648835
aF-3.4972575088600304
aF-3.497552412615519
aF-3.4989925117571965
aF-3.500432409446157
aF-3.5019997921706447
aF-3.52687719390521
aF-3.530652195913951
aF-3.536312589679998
aF-3.5313856415421587
aF-3.5324565610996155
aF-3.535122932678867
aF-3.537817122154796
aF-3.5404638726590205
aF-3.5047718445947824
aF-3.5007925907033197
aF-3.495967204343944
aF-3.4911250457604868
aF-3.49517258017932
aF-3.494974380392842
aF-3.493364412314465
aF-3.490940048147926
aF-3.5113571133181667
aF-3.513718301579187
aF-3.5161112933876546
aF-3.5184581961208057
aF-3.519480092375074
aF-3.5215260131438146
aF-3.5236056904536928
aF-3.527030981648837
aF-3.5186136070285037
aF-3.5186452455677766
aF-3.518674823394991
aF-3.518783615349571
aF-3.511402177540516
aF-3.510686542259735
aF-3.509343350961961
aF-3.5079696510418366
aF-3.5027184673253418
aF-3.5020287717459726
aF-3.4993029740031196
aF-3.4982097862823456
aF-3.5087178135701245
aF-3.5094478588024822
aF-3.510180127053665
aF-3.5109100201847347
aF-3.507119751011535
aF-3.506887981547132
aF-3.50665490371197
aF-3.506422544690309
aF-3.5017067224586857
aF-3.5009539988182428
aF-3.4998428599736418
aF-3.4987573692543994
aF-3.4895324158115693
aF-3.4892724677206868
aF-3.4877561174032237
aF-3.485497544621228
aF-3.464052731459596
aF-3.459825515147031
aF-3.453805994189376
aF-3.4477807885755523
aF-3.4367184553872456
aF-3.4304895482149687
aF-3.4236594662921775
aF-3.4164986227905403
aF-3.3758937618112594
aF-3.364908641189083
aF-3.3509437431046036
aF-3.3370057200011667
aF-3.312273258753962
aF-3.2959345985728774
aF-3.279538578937857
aF-3.263165044208779
aF-3.2650078524246
aF-3.2577588835916518
aF-3.2463540851952986
aF-3.2351362499642393
aF-3.2541291275731505
aF-3.250229677624745
aF-3.245644373576682
aF-3.2415270181621616
aF-3.2297869319460473
aF-3.2238982543653614
aF-3.2179059269332746
aF-3.2119147258695158
aF-3.160595869880183
aF-3.1438836631118594
aF-3.1277776287089676
aF-3.111596533808232
aF-3.1138649342896128
aF-3.1029614556614726
aF-3.091080846633868
aF-3.07918959079191
aF-3.120235423125582
aF-3.1206971409207602
aF-3.1211603433092754
aF-3.1216239868129154
aF-3.0992976284191918
aF-3.096594364542931
aF-3.0917019988291505
aF-3.086812525819302
aF-3.0426061401401654
aF-3.0299319935916262
aF-3.0237910625719246
aF-3.0101696951711716
aF-3.0369628915735434
aF-3.034543520163476
aF-3.031266509569256
aF-3.027145107608004
aF-3.0302637321500283
aF-3.028589608795726
aF-3.026174810345221
aF-3.0235720542017726
aF-2.986581536682352
aF-2.9787186232031826
aF-2.969118847631252
aF-2.9594609166430796
aF-3.0296080254804894
aF-3.037660600096166
aF-3.0456613774824786
aF-3.0536264030747167
aF-3.05316712165259
aF-3.0592150962347535
aF-3.065928848854549
aF-3.0733497817956743
aF-3.007491526519802
aF-3.001751218643403
aF-2.9935447619425686
aF-2.984739536626718
aF-2.9125373328122515
aF-2.890990042082666
aF-2.869299359250142
aF-2.8475858344290814
aF-2.7705644056111582
aF-2.7376786840870793
aF-2.704675214189294
aF-2.6917497389678626
aF-2.667148103330489
aF-2.6399954650837643
aF-2.6128556317676117
aF-2.6713809313833625
aF-2.6664365425211876
aF-2.661249177480508
aF-2.656057994539158
aF-2.6804251411664755
aF-2.682334474548526
aF-2.682744092342333
aF-2.684592542189814
aF-2.716817902062401
aF-2.7216411861493537
aF-2.7301840730438385
aF-2.738280718022763
aF-2.727075423285781
aF-2.730738927162727
aF-2.734432446804612
aF-2.7381330715562084
aF-2.7805099726823252
aF-2.7919405375012607
aF-2.8043414648121447
aF-2.816842546382179
aF-2.7392567187678565
aF-2.729359010352262
aF-2.72784180557617
aF-2.721557694106696
aF-2.674808438719956
aF-2.658665859010784
aF-2.642501424461585
aF-2.6260584376909817
aF-2.5681342851292297
aF-2.5448798177316103
aF-2.519445017323156
aF-2.4938920048578344
aF-2.367095869458036
aF-2.3424062553079485
aF-2.297511138716438
aF-2.2526712774322393
aF-2.2690582040235334
aF-2.2566408371276347
aF-2.229953724619607
aF-2.203248882933368
aF-2.27469420155183
aF-2.271422750190067
aF-2.2685055050648146
aF-2.265748720600391
aF-2.353108802889891
aF-2.358005755665047
aF-2.365643532371075
aF-2.3802438534953225
aF-2.3771760582836037
aF-2.3786880833914776
aF-2.387339114641491
aF-2.396007605925744
aF-2.3291115869500203
aF-2.325356651612589
aF-2.31623267984759
aF-2.3088586473967263
aF-2.1824000399805894
aF-2.176781329922262
aF-2.17076572681196
aF-2.1507430892720523
aF-2.150752414110438
aF-2.1417683211004146
aF-2.1241821731637143
aF-2.106805428319444
aF-2.167872675790049
aF-2.168671915701245
aF-2.17010595207251
aF-2.1715973916547586
aF-2.211898614352761
aF-2.218329037827614
aF-2.2283060354969964
aF-2.2382951676224345
aF-2.242127209851301
aF-2.242682837140087
aF-2.2482042547801426
aF-2.2558520319670703
aF-2.2130652447978725
aF-2.2127659123296697
aF-2.2117277399149726
aF-2.208405691873581
aF-2.2015039055232917
aF-2.1989816363977095
aF-2.194799745910284
aF-2.1912595349021826
aF-2.1652844754474785
aF-2.1573739457534016
aF-2.1486664743926993
aF-2.1399624854076436
aF-2.1296613110068154
aF-2.1206165998842588
aF-2.1115593496151166
aF-2.1024977505090074
aF-2.1218685368303385
aF-2.119145030267475
aF-2.116409599353191
aF-2.1136462429413077
aF-2.126009490004789
aF-2.1265892926127172
aF-2.1271719382134333
aF-2.127755005948435
aF-2.0712359338530453
aF-2.0630880871794455
aF-2.0518955403027865
aF-2.040700396017589
aF-2.0412639920159066
aF-2.0326354521030714
aF-2.023965010595797
aF-2.0152969258365974
aF-2.0110889287583817
aF-2.0033761152547487
aF-1.9956588843144631
aF-1.9879221919399757
aF-1.9835391621579515
aF-1.9765462987862703
aF-1.9695384331212322
aF-1.9625312965396091
aF-1.979893274858902
aF-1.9790173015569934
aF-1.9775070448097058
aF-1.9758121808029037
aF-1.9745185573403847
aF-1.9729124702615781
aF-1.9713036847751253
aF-1.960270846050645
aF-1.9587900562647813
aF-1.9552932096736049
aF-1.9517911315488141
aF-1.9382563125466814
aF-1.9341396874217112
aF-1.9285072467851032
aF-1.92286639184407
aF-1.8850016803007401
aF-1.87487651572415
aF-1.8620951785524436
aF-1.8491993204840735
aF-1.8470907276000332
aF-1.8444715773220666
aF-1.84190974600435
aF-1.8341153304931312
aF-1.8330179592030218
aF-1.829611255965995
aF-1.82429989359226
aF-1.8188485986222642
aF-1.8123071384110996
aF-1.8100033839913618
aF-1.8051667823854718
aF-1.7999472889119539
aF-1.7979023949052304
aF-1.795757016415711
aF-1.79177781434587
aF-1.7878058470154228
aF-1.7797746034917137
aF-1.7755290240657287
aF-1.7707502513377076
aF-1.7659596477371933
aF-1.7624806334887189
aF-1.7592118389313915
aF-1.7556431854933878
aF-1.7514021458591378
aF-1.7577439645007873
aF-1.756112304604454
aF-1.7542861644607095
aF-1.7524669572822646
aF-1.7329025326177474
aF-1.7271776444557219
aF-1.7155192518298241
aF-1.7153293712637878
aF-1.7004216764967262
aF-1.6925964676579417
aF-1.684738384662385
aF-1.6769420073052306
aF-1.6998214807498115
aF-1.6986240024523047
aF-1.6974249005742217
aF-1.6962300218131259
aF-1.6674481600971554
aF-1.6603899722566617
aF-1.6533002640193928
aF-1.6462252955416194
aF-1.629248406448061
aF-1.621231977814571
aF-1.6122263501587506
aF-1.60332445724966
aF-1.6045433591624887
aF-1.597724259541804
aF-1.590894425268003
aF-1.5840721025199187
aF-1.5791980019900018
aF-1.5766358448038114
aF-1.5708901862803737
aF-1.5651338324131867
aF-1.5715135452644997
aF-1.5682347009344575
aF-1.564948761330502
aF-1.5410440513324601
aF-1.537074883441147
aF-1.5294758174505636
aF-1.5218761741087896
aF-1.5148664145925275
aF-1.512157230953746
aF-1.5067139712590463
aF-1.5003463344309969
aF-1.4978973259168589
aF-1.4949389002283793
aF-1.4900692266228948
aF-1.485192133682572
aF-1.4773194894200703
aF-1.4743244500188253
aF-1.4692410718814293
aF-1.4641483437944645
aF-1.4581012364705745
aF-1.4521025991660614
aF-1.4470857174080447
aF-1.4457595848767393
aF-1.439069590332006
aF-1.4356447001637191
aF-1.4340018456109125
aF-1.4296164258555648
aF-1.422306937126729
aF-1.4199132926130893
aF-1.4153391410667882
aF-1.4107883693041088
aF-1.4058611051659462
aF-1.4030108931010181
aF-1.3986910630579699
aF-1.3943933252775353
aF-1.3866224845132429
aF-1.3839835771756044
aF-1.37932683382851
aF-1.374672209100507
aF-1.3597657904457257
aF-1.3567362509862502
aF-1.3504797122790115
aF-1.344121810880452
aF-1.3444122482592784
aF-1.339672833444334
aF-1.334916130231445
aF-1.3300246535075477
aF-1.3475072924865068
aF-1.3480263107581991
aF-1.3485400446592135
aF-1.3490655158610487
aF-1.3298084613895078
aF-1.32905309630226
aF-1.326965728626543
aF-1.3236926067188053
aF-1.306561540815994
aF-1.300077375102556
aF-1.2935812234377089
aF-1.287080261792361
aF-1.2884367790639757
aF-1.2837707687864097
aF-1.2790910140759062
aF-1.274407102329828
aF-1.2657981112248098
aF-1.2614128192007423
aF-1.2560228009739303
aF-1.2507087295761667
aF-1.2531158307092125
aF-1.2496003157878468
aF-1.2460426129104867
aF-1.2424698777077738
aF-1.247430479144636
aF-1.246068914485885
aF-1.2444532980763134
aF-1.242840143108026
aF-1.2352375312511914
aF-1.2323245690136782
aF-1.2293961247359486
aF-1.2264738194847395
aF-1.2235136557164394
aF-1.2205931049265357
aF-1.2176334093753685
aF-1.2145630185337422
aF-1.2239696240305407
aF-1.2237948526208104
aF-1.2235088991007417
aF-1.2232233136576545
aF-1.1980051106927498
aF-1.1926718406281662
aF-1.1871020500245444
aF-1.181548077886096
aF-1.186758998304377
aF-1.1834510343803712
aF-1.1801371837390018
aF-1.1768239429827647
aF-1.1849201773910292
aF-1.183995842478612
aF-1.183066295270075
aF-1.1686711169565513
aF-1.1654991680342126
aF-1.1613170479184696
aF-1.1571324353289265
aF-1.1464142161575848
aF-1.1416359390324617
aF-1.1359840714513043
aF-1.130334509573881
aF-1.1461934833017096
aF-1.14604823562069
aF-1.1458299949326596
aF-1.1456102863683018
aF-1.1476665533775945
aF-1.1478664994031005
aF-1.148183477795458
aF-1.1485227819248705
aF-1.146660398544715
aF-1.1464653894895822
aF-1.1462048267621439
aF-1.146054279573544
aF-1.1322661032514236
aF-1.1291813304800045
aF-1.1257876887030778
aF-1.1224099329345967
aF-1.109590619246202
aF-1.1042232860353893
aF-1.0986545264247758
aF-1.0930698177692169
aF-1.0976990764910053
aF-1.094546170107318
aF-1.0913625414382178
aF-1.08817812305863
aF-1.0834970004988504
aF-1.0808071196796059
aF-1.0774297794411354
aF-1.0740639636583122
aF-1.0647227631754577
aF-1.0602963693016025
aF-1.055608835618523
aF-1.050914848016744
aF-1.0630796741076118
aF-1.0621979254798994
aF-1.0613114988870185
aF-1.0604272253621336
aF-1.049337171136883
aF-1.0461939113678953
aF-1.0430495697333397
aF-1.0399065364013313
aF-1.0141933165178536
aF-1.0061646543340108
aF-0.9981086067558227
aF-0.989851087831251
aF-0.9737001014043885
aF-0.9672904560340605
aF-0.9580546610047032
aF-0.948840105500296
aF-0.938943248400367
aF-0.9296071141216136
aF-0.9202424557957178
aF-0.910869888699853
aF-0.951210223917978
aF-0.9523524038498672
aF-0.9534974518193393
aF-0.9546440941611414
aF-0.9444131538078668
aF-0.943204227456365
aF-0.9419896013472793
aF-0.914956748816453
aF-0.909455518724674
aF-0.9020631705250008
aF-0.8946631006985615
aF-0.8758098588412688
aF-0.8665737302024816
aF-0.8565053377734859
aF-0.8464358569437187
aF-0.8511020675343557
aF-0.8461245631620558
aF-0.8399891266160371
aF-0.8338396399394872
aF-0.8269894447715818
aF-0.8253129479058576
aF-0.8199009329154476
aF-0.8144920544347083
aF-0.8176301516176563
aF-0.8142894048478728
aF-0.8109428458477861
aF-0.8075928182586476
aF-0.8085857768783671
aF-0.8062777424344911
aF-0.8039635047169422
aF-0.8016465634831067
aF-0.7892395567895851
aF-0.7845351197345687
aF-0.7798320955252391
aF-0.7751162615150138
aF-0.7597220335493489
aF-0.752517501516768
aF-0.7453405552554961
aF-0.7381284919610831
aF-0.7322997519453207
aF-0.7254187031729091
aF-0.7180869103377534
aF-0.7116462956605318
aF-0.6904041178082574
aF-0.6802812353740044
aF-0.6701164662711196
aF-0.6599532816299969
aF-0.6654452344187316
aF-0.6588337430959177
aF-0.6522001891609286
aF-0.6455779051900916
aF-0.6404944037181837
aF-0.6340480577334306
aF-0.6279637152768933
aF-0.6216811489437775
aF-0.629219066351822
aF-0.6256754778127267
aF-0.6226530464222162
aF-0.6193569774738821
aF-0.606187941237577
aF-0.6008108177455438
aF-0.5954105729339512
aF-0.5882488685667884
aF-0.5464636627808912
aF-0.53305001878454
aF-0.5196058864228756
aF-0.5061394927151095
aF-0.4867499404158805
aF-0.472504501819894
aF-0.46122502804227616
aF-0.4771097858685489
aF-0.47215225579790565
aF-0.465749439036487
aF-0.4592869399060503
aF-0.4893623449359198
aF-0.4915572687731321
aF-0.5113550957710562
aF-0.5140860256158318
aF-0.5104566195843704
aF-0.5107912697911858
aF-0.5113250528710694
aF-0.5118589662581359
aF-0.4728114957674765
aF-0.463634616745878
aF-0.45448238929947504
aF-0.4452874211286727
aF-0.3954141221623475
aF-0.38544632451398697
aF-0.3682353911284809
aF-0.35105434773695754
aF-0.33939346874022047
aF-0.32358349301127376
aF-0.3076105795371382
aF-0.28387837654470593
aF-0.3089928834938299
aF-0.3030045416849363
aF-0.297150118702616
aF-0.29105374572702913
aF-0.30125072368569894
aF-0.2988926957048573
aF-0.2965266622339069
aF-0.29416223553192755
aF-0.30106377804032514
aF-0.30080734000740683
aF-0.30055005852633054
aF-0.3002936112473301
aF-0.27230708678977456
aF-0.2714855947314323
aF-0.2681618646579428
aF-0.2627851678470965
aF-0.22095271014516726
aF-0.20733066144037626
aF-0.19349145921337907
aF-0.17981634688491088
aF-0.17585491352381832
aF-0.16435976106638694
aF-0.15282626990413883
aF-0.14122449801610393
aF-0.14126805418370503
aF-0.13239158218182612
aF-0.12343475466623022
aF-0.11448355167834434
aF-0.11515205067195156
aF-0.10829292765115561
aF-0.10140820781006954
aF-0.09408278825638206
aF-0.10493965468587563
aF-0.10164670120341046
aF-0.0986389835628354
aF-0.09541731061453962
aF-0.0835514068137505
aF-0.0785505004697214
aF-0.07352261294678736
aF-0.06719053925810281
aF-0.06454817405257968
aF-0.05974138686528435
aF-0.054934964666785546
aF-0.04606480031948823
aF-0.041886394460854126
aF-0.03632730313666516
aF-0.030849117969655337
aF-0.024586967165045936
aF-0.021735666670881892
aF-0.014982229077586728
aF-0.01147548692370376
aF0.015877603710568344
aF0.0208313679497254
aF0.03035067264112523
aF0.03968659695118443
aF0.04619450742639425
aF0.053414680106149526
aF0.06184431013741348
aF0.07029241161080596
aF0.06962626099331148
aF0.07591365920222587
aF0.08220420358943314
aF0.08849832203518121
aF0.09202232331615084
aF0.09560728138492447
aF0.10069991998852151
aF0.10592170653933719
aF0.10842478913000175
aF0.11300406372975547
aF0.11759781220885013
aF0.12218377271225883
aF0.11906573309400131
aF0.11921887868944953
aF0.119813401709644
aF0.12118349107488724
aF0.13002463607798798
aF0.13350805012383182
aF0.13701065568457027
aF0.14051457803538198
aF0.16549535782541175
aF0.16941919397781702
aF0.1768895272171694
aF0.1843542120260314
aF0.19357424422659367
aF0.19505721821023198
aF0.20093936829826523
aF0.2075233324729918
aF0.22089374441531553
aF0.2289078722865994
aF0.23693041333359652
aF0.2449600509906418
aF0.23613658058704207
aF0.2405253793531475
aF0.2450246988934741
aF0.2493210774546204
aF0.26006673031033056
aF0.2657787932736172
aF0.2715059495796445
aF0.2772398165828235
aF0.27775718592302434
aF0.2799803352041982
aF0.2842309234480684
aF0.29870151397291145
aF0.3001765702197511
aF0.3038151751071572
aF0.3092222494175313
aF0.31469855191418444
aF0.3170868571102832
aF0.3218667794231097
aF0.3266735923523487
aF0.3360016922976328
aF0.3388574687474952
aF0.34418164489650627
aF0.3495085921332626
aF0.3491763517760833
aF0.35089263683470895
aF0.35438914706503755
aF0.35782800591958036
aF0.37184184178932883
aF0.37342045040804184
aF0.3785792508554161
aF0.3837536917425542
aF0.3965588680040971
aF0.4001296234344218
aF0.4064752820447278
aF0.4128354194709893
aF0.41502222370520153
aF0.4187715203959077
aF0.42382769968026207
aF0.4288618570492611
aF0.4346434504527666
aF0.4368720932104911
aF0.441517151472167
aF0.446155411353675
aF0.44594566256997137
aF0.4493413799115973
aF0.45284447680683415
aF0.4563574742425515
aF0.45545486829005816
aF0.45726114025645664
aF0.4596461103487902
aF0.4620323104559239
aF0.46170200294000585
aF0.46345719756196174
aF0.4652130883409161
aF0.4669709902400878
aF0.4798910255052695
aF0.483200077405779
aF0.48729936999474627
aF0.49140755219690446
aF0.5046562654362772
aF0.5107408838962837
aF0.5168554254659686
aF0.5229727318037594
aF0.5156961848932116
aF0.5188718418183067
aF0.5220608156317089
aF0.5255256684300765
aF0.5318105157537195
aF0.5354153157139054
aF0.5392682620232488
aF0.5431328985086435
aF0.5433202436075748
aF0.546154674941641
aF0.5491979616718343
aF0.5522937998209378
aF0.5571009817693651
aF0.5591969700673125
aF0.5623890537894536
aF0.5683144815604888
aF0.5689526036261066
aF0.5721884025228892
aF0.5754216930985483
aF0.5845654366489572
aF0.5877192469178102
aF0.5921497361095782
aF0.5965757075576936
aF0.5956507258525205
aF0.5970788397561575
aF0.5995753844198208
aF0.6022770792082645
aF0.6024077470923441
aF0.6034509736284234
aF0.6053138621882428
aF0.6071751336314228
aF0.616891118584296
aF0.618328623569245
aF0.6216511094229699
aF0.6249679493542797
aF0.6418716793371927
aF0.6436651734108716
aF0.6493029227312529
aF0.6549540699700114
aF0.6472356693741409
aF0.6481386592401126
aF0.6514118893390254
aF0.6525509178209314
aF0.6578345843612217
aF0.6595124930519844
aF0.6621914608410695
aF0.6650428903141461
aF0.672664271993267
aF0.6740046733220955
aF0.677381025730522
aF0.6807569323516582
aF0.6857670190373915
aF0.6892616944260186
aF0.6929663304633521
aF0.6966672907812959
aF0.6867349875858857
aF0.6867790006385959
aF0.6872402595203286
aF0.6877870830149924
aF0.6860540178472141
aF0.6860606132469409
aF0.6964603765907136
aF0.6973255312992095
aF0.6989629618631145
aF0.7009842819812342
aF0.7000608344853035
aF0.7012339045317564
aF0.7030064132275073
aF0.7041795699211739
aF0.7100095949595082
aF0.712180749917896
aF0.714365995858534
aF0.7213517291890773
aF0.7202990990252989
aF0.7209776049624695
aF0.722351323082109
aF0.7236921227860047
aF0.7284631289737775
aF0.7327172615414588
aF0.7347942497302219
aF0.7368946649714033
aF0.7373176739231702
aF0.7389536675014345
aF0.7406638879993295
aF0.7423920208606245
aF0.7405557666527505
aF0.741405398252614
aF0.7415388088840126
aF0.7465993836427032
aF0.7468407157675453
aF0.7470503320725261
aF0.7484097781444448
aF0.7764226386456063
aF0.7809459458262489
aF0.7884119722265055
aF0.7961198528776623
aF0.7964915271878896
aF0.7982499751750225
aF0.8031746038576743
aF0.8081185414064768
aF0.797579432604106
aF0.798192040638082
aF0.7990278201303369
aF0.7999731702311728
aF0.8108202640351575
aF0.8129850743829574
aF0.8157800509580838
aF0.8188253223061144
aF0.8128117483895958
aF0.8135267491127126
aF0.8143375253800482
aF0.8151509758319098
aF0.8411450531068559
aF0.8472816722246543
aF0.8539910141960553
aF0.860699202349863
aF0.8574548460195908
aF0.8625601385593578
aF0.8637987526628104
aF0.867778211873974
aF0.8647287727682819
aF0.8651796017409097
aF0.8667688832789698
aF0.8687036909531646
aF0.8691451758462971
aF0.8695957442961469
aF0.8708609016131359
aF0.8722180162147201
aF0.8732828533531359
aF0.8741148484847616
aF0.8751099521974959
aF0.8762850159293017
aF0.8812833038987407
aF0.8816925423761839
aF0.8834238763871145
aF0.8851485958424388
aF0.8914877707180364
aF0.893870268139161
aF0.8965404570699871
aF0.8991852608271045
aF0.9057650797166662
aF0.9092666907012008
aF0.9127853180930546
aF0.9163023141599094
aF0.9212687192039682
aF0.9241605637364907
aF0.9278146549642691
aF0.9314479587097237
aF0.9197232535758108
aF0.9201568556239181
aF0.920598230864035
aF0.918866331261715
aF0.9188505441918957
aF0.9187409042555276
aF0.9186309602829382
aF0.9188615105399489
aF0.9188520055565467
aF0.9188447282504965
aF0.9188348828075363
aF0.931975682462741
aF0.9323814090700132
aF0.93421890773615
aF0.9367860651985364
aF0.9502226515405849
aF0.9517552884168116
aF0.9562065744863106
aF0.9607060112926437
aF0.9603589235373983
aF0.962305010748937
aF0.9653468315010697
aF0.9683912236538725
aF0.959470280088736
aF0.9595526050424401
aF0.9597210167499739
aF0.9598891976763514
aF0.96141161428747
aF0.9617608146812783
aF0.9622362527350543
aF0.9626557984715496
aF0.9730433383634294
aF0.9740596106005817
aF0.9762379405091058
aF0.9786370757144303
aF0.9787827441354222
aF0.9792034664935347
aF0.980748520060304
aF0.9823409593071518
aF0.9807014948542055
aF0.9809934489962555
aF0.9816111092562211
aF0.9823605911804225
aF0.9902582976981283
aF0.9925624623569478
aF0.9948705741968719
aF0.9971868669625045
aF0.9981230669084843
aF1.0001290694715093
aF1.0021700769273938
aF1.0041450677960087
aF1.0057698810619744
aF1.0066335682614733
aF1.0083772508955116
aF1.010123062815375
aF1.0106849120809889
aF1.0121779292587543
aF1.0136748620524711
aF1.0151719565000579
aF1.0100440980280656
aF1.0101648544043957
aF1.010285456330564
aF1.0086347235023672
aF1.0085191685531687
aF1.0082261018272383
aF1.0079335283750912
aF1.0029472842580058
aF1.002387394536969
aF1.0019019539385439
aF1.0007481610585616
aF0.9995925031311648
aF0.998759823191741
aF0.9976672973291612
aF0.9965781490359314
aF1.0040650983664285
aF1.0047571240870186
aF1.0057003566941438
aF1.00664256730724
aF1.0057659905513103
aF1.005960112996106
aF1.006133773116558
aF1.0065295124767473
aF1.009628653822297
aF1.0101784150483908
aF1.0111170525659998
aF1.012055333354264
aF1.021207892874168
aF1.0226538467595416
aF1.025221358991737
aF1.0277886040541133
aF1.027097255510705
aF1.0288617722147861
aF1.0306801632965912
aF1.0324970134490816
aF1.0300648239555408
aF1.0309139330179442
aF1.0317666072593124
aF1.0326185043871012
aF1.0310520820283346
aF1.0313894435725222
aF1.0316822389981763
aF1.0319991815448777
aF1.0330560884187219
aF1.0335128954851478
aF1.0339886423621543
aF1.0344643530763227
aF1.0430606858121532
aF1.044103126399059
aF1.0461342055497769
aF1.0481646919525796
aF1.0437098822134065
aF1.0443435519652602
aF1.0449898569421832
aF1.0456138545969706
aF1.0581841952596391
aF1.061300925199915
aF1.0644251682848784
aF1.0596104679301623
aF1.0602534950109788
aF1.0612316519716707
aF1.0622110693783333
aF1.06097128976163
aF1.0600504960796235
aF1.060242130253835
aF1.0594822552184502
aF1.0594142246265736
aF1.059295947373477
aF1.05918309118421
aF1.057400587024604
aF1.0569650235562564
aF1.0564827489169835
aF1.0572617275236738
aF1.0541697592714492
aF1.0532631710906362
aF1.0522317860065884
aF1.0511955573773917
aF1.0556719716750635
aF1.0565467267252926
aF1.0566954864311473
aF1.0567933287039577
aF1.073014829886603
aF1.0766423172491342
aF1.0801906985995458
aF1.0837870813803256
aF1.0639451314808888
aF1.063502166633402
aF1.0630421401732466
aF1.0625892877482812
aF1.0519143625040035
aF1.0492983742160844
aF1.0465179436729874
aF1.0422797017113692
aF1.0416751355634806
aF1.0404166295894486
aF1.0382204015659364
aF1.0480694212031312
aF1.0484670179933548
aF1.0492094072841345
aF1.0499888736514034
aF1.0559528475789048
aF1.0566322329104576
aF1.0581430419943396
aF1.0599656508393616
aF1.0492034287453298
aF1.048493691386541
aF1.0472889321415808
aF1.0460897947024679
aF1.0506021116894364
aF1.0506637805864119
aF1.0508243605125571
aF1.0509928859664979
aF1.0381433811318317
aF1.0349636808985312
aF1.0333833630681957
aF1.0284704896107337
aF1.0280357705852228
aF1.0258922012915366
aF1.0330752708687383
aF1.0331037860243986
aF1.033162415737472
aF1.0332210696199087
aF1.0410260508577496
aF1.0419560187651429
aF1.0436121070801434
aF1.0453738745272223
aF1.0308509215531707
aF1.0302611167217302
aF1.0283289254096109
aF1.0262624536681322
aF1.0217479708685895
aF1.020187034264749
aF1.0177945985000028
aF1.0154025455265103
aF1.0083452220352829
aF1.0052742211158985
aF1.0029613204281156
aF0.9997296958227988
aF1.0002570073816628
aF0.9983616175929173
aF0.9961014315700772
aF0.993718816539981
aF1.0009867878959904
aF1.0009295121992752
aF1.0008604610065495
aF1.0007815911939608
aF1.0177942890080196
aF1.021819084264516
aF1.025474621732541
aF1.0293574674540582
aF1.0303591213168595
aF1.033143147977638
aF1.0362842238715686
aF1.0396189197286265
aF1.0185669129829287
aF1.016340433930221
aF1.0140807124270934
aF1.011838624815212
aF1.002994778127934
aF1.0004455541485977
aF0.9970999184145376
aF0.9936237721572249
aF0.9962485561405028
aF0.9950425718717275
aF0.9930734803814397
aF0.9910111495455148
aF0.9966956618892646
aF0.9964855050326983
aF0.9962741338017733
aF0.9960629829823281
aF1.000589626974822
aF1.0007137848659853
aF1.0012862617535725
aF1.0019980650275218
aF1.0043362379317806
aF1.0054122129941276
aF1.006492996338125
aF1.0076281396174378
aF1.0043674763180346
aF1.004446995710909
aF1.004623887489482
aF0.9975558870691021
aF0.997202353739577
aF0.9964203820352894
aF0.9900712556312377
aF0.9879522308494503
aF0.9868019494334809
aF0.9859808770659174
aF0.9850390456903011
aF0.9833932519936228
aF0.9816901598453827
aF0.9799893890434632
aF0.9854404402533156
aF0.9854250218678372
aF0.9854089089389882
aF0.9853927962681661
aF0.9900619099285373
aF0.9910953956510619
aF0.9921509089931951
aF0.993206950423639
aF0.9913998993256274
aF0.9916936715629678
aF0.9920777768615583
aF0.9924653206772
aF0.9886728266207403
aF0.9881338356147429
aF0.9875202912635961
aF0.9870523881182152
aF0.9851900886682671
aF0.9843619811470754
aF0.9835312011225681
aF0.9827018718855751
aF0.983656795464941
aF0.9832167841018394
aF0.9827739265629378
aF0.9823334014050735
aF0.9873058848768794
aF0.9878589569902386
aF0.9885351752294437
aF0.989211702051283
aF0.9812827312377144
aF0.9805373725632064
aF0.9794857973259218
aF0.980856252037625
aF0.9805896411867622
aF0.9801944429580196
aF0.9797981317133614
aF0.9924435550996575
aF0.9942617185862755
aF0.9969200126331127
aF0.9998306137847642
aF0.9835056274876971
aF0.9831330893799324
aF0.981465776511962
aF0.9798009596113749
aF0.9747899042734237
aF0.9733369644013905
aF0.9710697753501039
aF0.9687911827330553
aF0.97169366453654
aF0.97078510130306
aF0.9697863812971156
aF0.9687837651090878
aF0.9605355769155465
aF0.9579739004163059
aF0.9552192567782153
aF0.9525826680640099
aF0.9707579825826148
aF0.971644212883212
aF0.9737022274722662
aF0.9755825324932785
aF0.9822485715720288
aF0.9853469867064033
aF0.9906922083320594
aF0.9931025973284028
aF0.9917154141952456
aF0.9920474670577437
aF0.9936757246260844
aF0.9953044123400399
aF0.9826391506597528
aF0.9827183334415958
aF0.9811587363526812
aF0.979586443146152
aF0.9779092185874314
aF0.9764786120947959
aF0.9749182337367824
aF0.9733590605548839
aF0.9885780540181289
aF0.9887236900136389
aF0.9890866535233852
aF0.9892312478245444
aF0.9898936865787227
aF0.9901543119027549
aF0.9904157762190959
aF0.9906782291236312
aF0.9919835989138597
aF0.9924746871984162
aF0.9929684999234033
aF1.0042721637789753
aF0.9995772741647564
aF0.9993447560275467
aF0.9987424768914465
aF0.9981394335057693
aF1.0015244365524851
aF1.0017788456428227
aF1.0020345103565669
aF0.995677259998461
aF1.0062347765733595
aF1.008064464750288
aF1.010372441780005
aF1.0126911545311783
aF1.0083527049485586
aF1.0092818966854633
aF0.989721721288277
aF0.9696175021816206
aF0.9682287297576273
aF0.9645001574172348
aF0.960820768236099
aF0.9728670232726523
aF0.9729294725563462
aF0.9731428802122563
aF0.9733615458165086
aF0.9845847436050371
aF0.986941187392791
aF0.9897783215241502
aF0.9926064979892012
aF0.9936548331338824
aF0.9941548448179326
aF0.9944536137758139
aF0.9961711227155011
aF0.9933887219608949
aF0.9939196049511401
aF0.9945315633291039
aF0.9951585329796571
aF0.9899056445768415
aF0.9893738008733373
aF0.9886470492492926
aF0.9879210380796338
aF0.9963386513473529
aF0.9973268677864534
aF0.9986642249643879
aF1.0000007582050625
aF0.9942196593353678
aF0.9939720458245331
aF0.9936676800697308
aF0.99336341169561
aF0.9860563910433429
aF0.9849355182851329
aF0.9831777574516763
aF0.9814234217665068
aF0.980143977037819
aF0.9791618856769418
aF0.9776384087632456
aF0.9761118680018367
aF0.9894002426151636
aF0.990548267152728
aF0.9921901140371358
aF0.9938262891035617
aF0.9896677932917205
aF0.9898309043475825
aF0.9901880066621629
aF0.9905017425476406
aF1.000992420504287
aF1.0035019702689953
aF1.006019806662882
aF1.0085355185382305
aF1.004411230336192
aF1.0055123756529212
aF1.0067684499917942
aF1.0077230912426192
aF1.0074337963923705
aF1.0081697039318809
aF1.008970748707247
aF0.9970863823737011
aF0.9953936810588454
aF0.9930609546289125
aF0.9907316321414382
aF0.9877717621225716
aF0.9860815275869289
aF0.9837507060488062
aF0.9814242534619698
aF0.9899114585610971
aF0.9901239657912092
aF0.9904356779777397
aF0.9907503397529801
aF1.002588147234801
aF1.003089244091646
aF1.0056872526204352
aF1.008395424385208
aF1.001041605950039
aF1.001081056887537
aF1.001191224011097
aF1.0013010730174186
aF0.998130007955569
aF0.9978745527304562
aF0.997377822014632
aF0.9967929138847146
aF0.9920182373300142
aF0.9907932382399197
aF0.9892677256599138
aF0.987743555257174
aF0.9892945727269167
aF0.988501985002216
aF0.9877051100948423
aF0.9869116853032945
aF0.9947271054147433
aF0.9953790167061088
aF0.9964821541305477
aF0.9975883156688999
aF0.9985386650163546
aF0.9996078151389127
aF1.0006778522562823
aF1.0017490763183994
aF0.9960060890849595
aF0.9955895141258732
aF0.9951726923263304
aF0.9945249412728169
aF0.9834951028806337
aF0.9824693224328276
aF0.9817324587630213
aF0.9798243560670139
aF0.988582738721836
aF0.9886608141056469
aF0.9887520647702637
aF0.9888927798529197
aF1.0001868044591107
aF1.0026623345501022
aF1.0051500770069235
aF1.0076411808478247
aF0.9992405684611527
aF0.9994543899975176
aF0.9996687544832498
aF0.9998838646652647
aF0.9889785853982932
aF0.9869085649104875
aF0.9848232124798186
aF0.9765660591466765
aF0.975192257397895
aF0.9719678217499684
aF0.9687562449594491
aF0.9813256144094566
aF0.9817679314243668
aF0.9818505900689645
aF0.9824530708898006
aF0.9829491671616073
aF0.983800353851487
aF0.9770973698659838
aF0.9786420494554805
aF0.9745330156793869
aF0.9746333080315588
aF0.9747680306603765
aF0.9749025928679425
aF0.9626170923055823
aF0.9605366312474563
aF0.9603117790695312
aF0.9586448879999944
aF0.959674871566401
aF0.9594499939784397
aF0.9585828923836704
aF0.9531771011088901
aF0.9604708493886701
aF0.9608047384787822
aF0.9617245262989512
aF0.9627815421795836
aF0.9685294430552397
aF0.9702774901390876
aF0.9723976222313035
aF0.9724483987380942
aF0.9608628239746665
aF0.9607368014322382
aF0.9600023861788959
aF0.9591210568513483
aF0.9540562839452522
aF0.9522701663712418
aF0.9497805438356344
aF0.94827646320424
aF0.9545277300676376
aF0.9545657666210847
aF0.9546108202586506
aF0.9546414752593507
aF0.9468644720221794
aF0.945422680385572
aF0.9436159441551414
aF0.9419489552955336
aF0.9542771651592024
aF0.9557143153603306
aF0.957222966441357
aF0.9587299172737849
aF0.9644745200085071
aF0.9669239726833897
aF0.9694499729052647
aF0.9718542541696291
aF0.9607347963038178
aF0.9604003359826684
aF0.9598766607155146
aF0.9593546755398528
aF0.9600895876300726
aF0.9598177179742763
aF0.9595998765006339
aF0.9593526728219215
aF0.9632019459175137
aF0.9638125576282212
aF0.9644550424296354
aF0.9650969257064731
aF0.9644828777705624
aF0.9648522402925851
aF0.96522295316839
aF0.9655930805450246
aF0.965158095662964
aF0.9653547693443879
aF0.9655522245169121
aF0.9657495060247475
aF0.9580061451957147
aF0.9565244530196594
aF0.9550354797863423
aF0.9535481258887368
aF0.9548394171318708
aF0.953881936298049
aF0.9530410396014916
aF0.9521473788423174
aF0.9493941762727041
aF0.9493051754644053
aF0.9482905191594253
aF0.9472211652436887
aF0.9476714928787937
aF0.946921963020954
aF0.9461698029064453
aF0.945405920995911
aF0.9436453389232932
aF0.9426211456674681
aF0.9417253856498474
aF0.9453272381282145
aF0.9454576166584875
aF0.9456611292977356
aF0.9458395289599633
aF0.9514210004599815
aF0.9519858121982255
aF0.9533461165532775
aF0.954708245182882
aF0.951429627671424
aF0.9515707471601367
aF0.9517599248191768
aF0.9519489867519463
aF0.9517008085492935
aF0.9517514299962475
aF0.9518264760735882
aF0.9519016356909926
aF0.9453761304042245
aF0.944617847124146
aF0.9430965057036067
aF0.9418498350799436
aF0.9385904393639263
aF0.9377246620281096
aF0.9360768456318664
aF0.934426527713879
aF0.9328287530033438
aF0.9315827957078274
aF0.9300217696130179
aF0.9284564956241739
aF0.9364685823097466
aF0.9368136771231339
aF0.9372144853442538
aF0.9378113554895843
aF0.9477064332301449
aF0.948247557126975
aF0.9506097137579925
aF0.953776304213368
aF0.948349762805953
aF0.9488136914416923
aF0.9494669987439763
aF0.950142685462198
aF0.9406419326776043
aF0.9400469829038675
aF0.93688333120618
aF0.9344823248189036
aF0.9336506789521005
aF0.9328707388068852
aF0.9480691988153729
aF0.9491401461267585
aF0.9510319361818124
aF0.9595111232030888
aF0.9690917379216957
aF0.9727623753692093
aF0.9737969303029508
aF0.9745458125551926
aF0.9739761596813065
aF0.9762030133639661
aF0.9785429197120389
aF0.9725213749461704
aF0.9560752326747158
aF0.9546507363558921
aF0.9534396024492369
aF0.9516489105108538
aF0.9495708811092374
aF0.9487606818380723
aF0.9471566785501827
aF0.9455021048944472
aF0.9538524450904069
aF0.9543689436139026
aF0.9550167462263944
aF0.9656902948334858
aF0.9753327937525766
aF0.9779338010817452
aF0.9804249527675197
aF0.9830512235340735
aF0.9854578703334366
aF0.987832920173804
aF0.9749470820427584
aF0.97480522030496
aF0.9740050750893192
aF0.9729953368804539
aF0.9680689962776167
aF0.9675819755017975
aF0.9658128801580381
aF0.9640465515355269
aF0.9536453712531049
aF0.9526431397012244
aF0.9507314883774248
aF0.9476490519090597
aF0.9570716705252538
aF0.9570565349266177
aF0.9570285895659633
aF0.956999407738341
aF0.955597131228982
aF0.9555739829484754
aF0.9553221834779873
aF0.9550339289793003
aF0.9588141380954467
aF0.9590221463993053
aF0.9596018842735781
aF0.9601971260646908
aF0.9621304610984232
aF0.9626744258993233
aF0.9635235718827875
aF0.9644300860401357
aF0.9655200196969835
aF0.9660746188454463
aF0.9669241379516642
aF0.9677744256010987
aF0.9581828982121203
aF0.958033049355092
aF0.957147299732232
aF0.955856832809657
aF0.9501741265112702
aF0.9497012129163797
aF0.9477174047509583
aF0.9456497239732177
aF0.9447839040165743
aF0.9442125569344498
aF0.9427014736562971
aF0.941193177083233
aF0.9540940077511298
aF0.9551688885809682
aF0.9567895970695269
aF0.9586744469975575
aF0.9517846721136675
aF0.9516101250581528
aF0.9513538527109398
aF0.9510865218089954
aF0.9546251144836432
aF0.955129598558965
aF0.9557447417190476
aF0.9563596460182281
aF0.948699724664853
aF0.9480106612098737
aF0.946885626057433
aF0.9456581881953127
aF0.9448459280818927
aF0.9436427780180405
aF0.942631916704556
aF0.9414469990080391
aF0.9405935937610542
aF0.9396310865440389
aF0.9385828844334487
aF0.9375306107891525
aF0.9419485207773104
aF0.9421708441034017
aF0.9423747527477537
aF0.9425882006135904
aF0.9429613546777674
aF0.9432107055110679
aF0.9434610788973009
aF0.9437338704058493
aF0.9468421814980051
aF0.9477641192765218
aF0.9486915345814017
aF0.9496169324358132
aF0.9480976167019677
aF0.9484639291744938
aF0.9487993151429411
aF0.9491505408306832
aF0.9524975765884258
aF0.953541938097466
aF0.9545901196691213
aF0.9556906247767937
aF0.9562753462170018
aF0.9572238849331607
aF0.9581767968845237
aF0.9591273012708614
aF0.9574527562059326
aF0.9578141648385525
aF0.9581468504204261
aF0.9584961966591343
aF0.9577988825786795
aF0.957888701623288
aF0.9579959735946069
aF0.9581083243714579
aF0.9573839822999121
aF0.9573039380443394
aF0.9572235848852754
aF0.9571433503374375
aF0.9536326468220403
aF0.9528031961543192
aF0.9519994208230769
aF0.9511560580429347
aF0.9548923557102456
aF0.9550799305942688
aF0.9552678170157276
aF0.9554646597622102
aF0.9636174887807505
aF0.9662227266381131
aF0.9680226429596281
aF0.9707309265660318
aF0.96699344276358
aF0.9675290278428349
aF0.968053113613518
aF0.9685995071926043
aF0.961214101169891
aF1.1092586015582468
aF1.1081913310065472
aF1.107051776542804
aF1.1153047016401332
aF1.1162727090316107
aF1.1172468362676713
aF1.1182642664508602
aF1.1195677618489597
aF1.120947585849011
aF1.1216791600576537
aF1.1227360324521904
aF1.1227117767872485
aF1.1235250054507986
aF1.124341704103718
aF1.1173269428529848
aF1.1166435874544156
aF1.1171623670537842
aF1.1176924576617329
aF1.118222505858701
aF1.116068290707307
aF1.051652582238451
aF1.051413796888116
aF1.0511382155076368
aF1.04915200898975
aF1.048644620739788
aF1.0480186922305479
aF0.983220879044065
aF0.9965130111391863
aF0.9970659094715425
aF0.9989332695821175
aF1.0007950217804307
aF0.9993990414104923
aF1.0005678113657663
aF1.0016810588537193
aF1.0028262326778055
aF0.9992230076432971
aF0.9993416575764836
aF0.9994655282951223
aF0.999595525802237
aF0.9922658891962931
aF0.9907897626843544
aF0.9893057094893638
aF0.9878166865312916
aF0.9806414122324151
aF0.9790693719583233
aF0.9766792231929332
aF0.9741859012475148
aF0.9659971544223259
aF0.9623056561709186
aF0.9585917008583341
aF0.9547183033819034
aF0.9494730872150156
aF0.9454157057318713
aF0.9413434175273305
aF0.9372771897603411
aF0.9418541012581317
aF0.9394878702401376
aF0.9373717086414006
aF0.9351334251192606
aF0.9384426471455121
aF0.9373807224054127
aF0.9363145233306787
aF0.935188837632713
aF0.9134220863745887
aF0.9080466396575709
aF0.9026358985575303
aF0.8972697284815272
aF0.8896600904300804
aF0.883567271906508
aF0.8779783619108908
aF0.8721355912991153
aF0.8787909000709372
aF0.8777536835883741
aF0.8757838695365276
aF0.8729229509516028
aF0.8675382399557067
aF0.8642466071430621
aF0.860940971152246
aF0.8576243865008765
aF0.8437950848928146
aF0.8410384117330458
aF0.8363342926681404
aF0.8313866561423503
aF0.8258030671827881
aF0.8220247218111141
aF0.8171876082623808
aF0.811919546925176
aF0.8018713409391132
aF0.795896279894873
aF0.7898915735068637
aF0.7838941884385706
aF0.774605289681785
aF0.7696684979051551
aF0.7636825509940166
aF0.7572167375595396
aF0.748765098526751
aF0.7471715102951787
aF0.7412937663504254
aF0.7350725286231986
aF0.722505992646977
aF0.7153057879137452
aF0.7080106645136441
aF0.7005964555010855
aF0.7008029402458638
aF0.6931955866555073
aF0.6907225316447301
aF0.6803657396420149
aF0.6799830639713683
aF0.6755839275177086
aF0.6697061335890804
aF0.6344771628337285
aF0.6328820717089596
aF0.6272760568556653
aF0.6171942351202888
aF0.6068199116705159
aF0.5818171725184025
aF0.5759361558095216
aF0.5646808717324301
aF0.5527410427399022
aF0.5450465328374701
aF0.5340433039265274
aF0.5230259754858924
aF0.5313971982619995
aF0.5289562026177774
aF0.5235364992625007
aF0.5181254207975072
aF0.5067240750332781
aF0.5026322104708628
aF0.49599041434416236
aF0.4899458491830121
aF0.4816989910178015
aF0.47632368857723734
aF0.4697948944821942
aF0.4632848465847046
aF0.4525906914842306
aF0.44919959847467456
aF0.44353972067330066
aF0.43698634765039635
aF0.43073439533304303
aF0.42676869331224015
aF0.42047044942082396
aF0.41480054487910745
aF0.39887657713788094
aF0.3951111311786785
aF0.3877373390971961
aF0.3773044122877865
aF0.3431548794517648
aF0.3369050970566072
aF0.32420649587089506
aF0.3121315222675785
aF0.2918725686303045
aF0.2884785191634188
aF0.27936428448591427
aF0.26909135222915115
aF0.24794264857630613
aF0.24865906334751064
aF0.23569442742065091
aF0.2234402334367299
aF0.23395540723109887
aF0.22975594203752683
aF0.22302938418534074
aF0.21636227005405606
aF0.2247405934695647
aF0.22210521963826577
aF0.21884301048349286
aF0.21586937369007003
aF0.17455894445703263
aF0.17176855226088372
aF0.16146035043184637
aF0.15109629035425348
aF0.13874077649445504
aF0.13478671370145728
aF0.12517715294633774
aF0.11578688007818061
aF0.11489395017068943
aF0.10919940511864468
aF0.10169515100219828
aF0.09482952804209072
aF0.09035724978215354
aF0.08380924269843043
aF0.07725039984284965
aF0.07069630583643655
aF0.06929697912628868
aF0.06425294390181518
aF0.05894741801006631
aF0.05362832500753556
aF0.0578475308001718
aF0.054726946728562764
aF0.051447469135839086
aF0.04838467249823364
aF0.05140039998620494
aF0.05018316925373684
aF0.048523513230814774
aF0.046859573616185646
aF0.03017418697303892
aF0.025968509838979748
aF0.021024307231630568
aF0.016125310022486627
aF-0.05317250674742213
aF-0.06047555547045563
aF-0.07979966075785205
aF-0.09567601742891108
aF-0.15076833885278895
aF-0.17298201993183882
aF-0.18034947696571912
aF-0.20141393368968563
aF-0.16558708080036644
aF-0.17439985492649246
aF-0.18351657722292736
aF-0.1926834077138646
aF-0.1029505492717726
aF-0.09874192173896157
aF-0.086752616133009
aF-0.07596912901416814
aF-0.11112199904846931
aF-0.11042153206292482
aF-0.10974035620609235
aF-0.10874282498194643
aF-0.16091830269590235
aF-0.16650269749297453
aF-0.17619356252294038
aF-0.185884815215419
aF-0.26439060986045326
aF-0.27695298810602675
aF-0.30051716142711893
aF-0.32205546826937714
aF-0.33897658658212193
aF-0.36025526256304463
aF-0.38158795421560765
aF-0.40292346185105243
aF-0.35175999750976406
aF-0.3548249721307065
aF-0.3599248529222018
aF-0.3649891341902265
aF-0.2989854173220299
aF-0.29517271933281986
aF-0.2865370277144047
aF-0.27758147244736664
aF-0.3052225138171074
aF-0.3046755778770688
aF-0.3037804793616873
aF-0.3028883190176018
aF-0.35307302953765873
aF-0.3598451948045419
aF-0.3696829667623487
aF-0.37958231351016625
aF-0.3940420771171619
aF-0.3970200143603482
aF-0.40706252806124776
aF-0.4159086934258375
aF-0.43579153323260533
aF-0.4437761365916858
aF-0.45482347624285024
aF-0.4658997041987152
aF-0.4987829607847484
aF-0.5135482492487135
aF-0.5292063623098902
aF-0.5449001356179706
aF-0.5364465026665114
aF-0.5468381655845137
aF-0.5577263111267821
aF-0.5675772174973577
aF-0.5386683985319835
aF-0.5404415373442094
aF-0.5422157401886873
aF-0.54398602030093
aF-0.5361133726531311
aF-0.5357899052102589
aF-0.5354528240358066
aF-0.5351156227917765
aF-0.5552638999757104
aF-0.5583792548192075
aF-0.5626026222040482
aF-0.5662096984967399
aF-0.5847488517202137
aF-0.5918471710148492
aF-0.5989237320077125
aF-0.6066655402949719
aF-0.6192990821780187
aF-0.6269618932546692
aF-0.6464935782122061
aF-0.6482493837237981
aF-0.6685835550351533
aF-0.6741772040195011
aF-0.6845983051584765
aF-0.6941801868966182
aF-0.6055179351800084
aF-0.6126839034585103
aF-0.6193291374575254
aF-0.6271551901102856
aF-0.6479117609345286
aF-0.6661300028595498
aF-0.676730905266107
aF-0.6870607627992695
aF-0.6620092186829221
aF-0.6646418458690133
aF-0.6675502721813282
aF-0.6701619497744804
aF-0.7014361774281224
aF-0.7102947458792686
aF-0.7192581225177168
aF-0.7281541463204464
aF-0.7346057553145326
aF-0.7425464671444564
aF-0.7508504074501761
aF-0.7591338534020851
aF-0.7776873142366205
aF-0.7880065949857522
aF-0.7991332537628975
aF-0.8089844491372968
aF-0.8131822181612454
aF-0.822259947493917
aF-0.8313778082882279
aF-0.84072428354884
aF-0.8319889979816251
aF-0.836785994700167
aF-0.841957855182069
aF-0.8471545306184227
aF-0.8367031488675094
aF-0.8384571527576132
aF-0.8403902599195814
aF-0.842031510385651
aF-0.8224526310997391
aF-0.8208073646506455
aF-0.8182210436675768
aF-0.8156265399623344
aF-0.9117674335962018
aF-0.9197290302399608
aF-0.9365047892687142
aF-0.9532735034086006
aF-0.9695247699709373
aF-0.9716644928803648
aF-0.9858566429327005
aF-0.9991325572360061
aF-0.9986929355683869
aF-1.0059629090756574
aF-1.01601303494752
aF-1.0261407039691264
aF-1.0149614999186303
aF-1.0198995396801838
aF-1.0252147847529032
aF-1.0305422670775923
aF-1.0367726252799216
aF-1.042279683375052
aF-1.0480802938266405
aF-1.0533115190678481
aF-1.0503940046574767
aF-1.0540611468468035
aF-1.0577246686353756
aF-1.0614148577660953
aF-1.0697052571664702
aF-1.0740777183463386
aF-1.0786940062754151
aF-1.0833347212586177
aF-1.0669303663396597
aF-1.0670955140876643
aF-1.0672689622795555
aF-1.0674262156771044
aF-1.059422835269264
aF-1.059025181081276
aF-1.0576815406340363
aF-1.056283714495186
aF-1.0489907908967073
aF-1.047698002267771
aF-1.0454471955307945
aF-1.0430995003218857
aF-1.0399137259731939
aF-1.037397953340568
aF-1.0347710239551426
aF-1.032275274847758
aF-1.0431308003767201
aF-1.043189686759223
aF-1.0432601200865677
aF-1.0433900177194864
aF-1.0715862932953735
aF-1.0759537295646395
aF-1.0815623576483913
aF-1.085718411281159
aF-1.0860503748232455
aF-1.0871564725012113
aF-1.090594982124413
aF-1.0694501699277867
aF-1.069180108212288
aF-1.0668412104633036
aF-1.0655225860257371
asS'yaw'
p5
(lp6
F2.0804695909517217
aF2.068927178937103
aF2.057392932450429
aF2.041988925175396
aF2.033934132785488
aF2.020464478320137
aF2.010745209518897
aF2.0101066488078976
aF2.005697298203892
aF1.9973509679143884
aF1.9890408585044292
aF1.9732984125072723
aF1.9690731413995322
aF1.960085701848282
aF1.951221064231999
aF1.943055209464697
aF1.935430161627717
aF1.9268514736622362
aF1.9182962322165515
aF1.9147371814618794
aF1.907390974560325
aF1.8999273952302735
aF1.8924824976038168
aF1.89291972762358
aF1.8871921467262631
aF1.8813963103075653
aF1.875601886710993
aF1.9002566948106352
aF1.9005303334730923
aF1.9010432219773223
aF1.9015550567793855
aF1.893420415911291
aF1.8925089843849572
aF1.8912981090368273
aF1.8230672174827298
aF1.8160501769499027
aF1.7998283079000192
aF1.783829347252192
aF1.8542238131414126
aF1.8565684064328456
aF1.8616127212737148
aF1.8666566929954937
aF1.8724416549618454
aF1.8749844718743494
aF1.8796570201504688
aF1.8843488013444887
aF1.8825957260874722
aF1.8843901204032505
aF1.8872469339773739
aF1.8901084752147446
aF1.894099455897602
aF1.8959151508351353
aF1.8987895542510822
aF1.9016645100606866
aF1.91414979505908
aF1.9174538236191963
aF1.9222326622982444
aF1.927017050268014
aF1.946853848824531
aF1.9551070226592684
aF1.9633727732127941
aF1.9716547742108577
aF1.9786449424450157
aF1.9863110041600691
aF1.9942335446138422
aF2.002157669639089
aF2.00782378856468
aF2.019914056976574
aF2.021623746386381
aF2.0255020125677183
aF2.030618391649856
aF2.0364062857870695
aF2.042667212260343
aF2.0657979432573397
aF2.0719547127111224
aF2.0809632312610344
aF2.0899811201320073
aF2.10676098318911
aF2.115576783204812
aF2.124860210575557
aF2.135051277348774
aF2.1510434109836285
aF2.158737683786529
aF2.169480476472618
aF2.1811010976273
aF2.188281837960026
aF2.197375042721594
aF2.207391316477067
aF2.2095791945658005
aF2.208977573557132
aF2.212650144850928
aF2.2191602680174527
aF2.217904137663862
aF2.2189058402711477
aF2.220969107507969
aF2.224873471079549
aF2.2178578153199675
aF2.2185817689482374
aF2.2249739204630337
aF2.232497190821011
aF2.26750787344081
aF2.273403575045375
aF2.2869772906333017
aF2.30009676314054
aF2.325805601805179
aF2.3314212870653654
aF2.3451971470195945
aF2.3589574686117896
aF2.362646709036048
aF2.3642359742462182
aF2.365916776374275
aF2.3740869936869773
aF2.3739416362357204
aF2.3778860845934195
aF2.382896474299362
aF2.386705379251916
aF2.404326551946234
aF2.407134527936071
aF2.4138673878725108
aF2.4230806519225188
aF2.4632574514824683
aF2.473260928371202
aF2.486811653840125
aF2.500553919753045
aF2.5442001820233378
aF2.5536723669953543
aF2.571061925639845
aF2.5875525471107355
aF2.596298685993035
aF2.6023665913027534
aF2.616634442678184
aF2.630888542265203
aF2.6240332004047473
aF2.6328371407054463
aF2.6424647636521055
aF2.6524211404841167
aF2.6409873030514883
aF2.6433871829159457
aF2.648289941780674
aF2.6524058575164964
aF2.6724207550358363
aF2.68033241168434
aF2.688205473651241
aF2.696147025360493
aF2.715008337610432
aF2.7242054492057632
aF2.7329016564290556
aF2.7427473007353727
aF2.769854180057573
aF2.7832326025105925
aF2.7977527871030956
aF2.8100472221687567
aF2.857518749004971
aF2.864470092592711
aF2.8689362809587355
aF2.8860262415815394
aF2.8933832403852215
aF2.907470315343709
aF2.9208034807653354
aF2.9118244226219296
aF2.9178217373127744
aF2.9258094719972583
aF2.934470856801495
aF2.9229997503468272
aF2.9254339981425104
aF2.929270260171992
aF2.9317288931228007
aF2.9432054412670268
aF2.9464867443591887
aF2.950878445832084
aF2.955644709439899
aF3.002407838095645
aF3.0131171073406486
aF3.01508474187731
aF3.025422348917976
aF3.0685297784593657
aF3.0805163155430697
aF3.098733830887677
aF3.1168246693473414
aF3.1151378570536385
aF3.1265361147404915
aF3.1382382509844104
aF-3.132159208491565
aF3.1289680668541213
aF3.1315432107729118
aF3.1359145652271803
aF3.1403181867373853
aF3.111578414902778
aF3.1083530366349303
aF3.1049511561583376
aF3.101552662369729
aF3.1038844410543183
aF3.1019321440355645
aF3.100085955964948
aF3.0980775322843535
aF3.1070868359969883
aF3.1076013489161984
aF3.1081763692820292
aF3.108733855377038
aF3.126825426274204
aF3.1309193609403105
aF3.135427024457773
aF3.139940930351939
aF3.118744724743563
aF3.11756291204376
aF3.116193837076518
aF3.114822871619837
aF3.1165471427170055
aF3.115881627994919
aF3.115211446010779
aF3.1144859377468794
aF3.1239857360010945
aF3.124469336938245
aF3.125875075507836
aF3.127268697139931
aF3.137918465186393
aF3.139717832789
aF-3.1406318735713263
aF-3.1375155743462226
aF3.1413729805685806
aF-3.1409703266410265
aF-3.1395100320692277
aF-3.13817211281361
aF3.1395591151025597
aF3.139472017934464
aF3.139337992984182
aF3.1392029596245634
aF3.1062433376329683
aF3.1000722997112904
aF3.0934350373128168
aF3.0863468448435656
aF3.1118400644844537
aF3.1118724720124695
aF3.111893433032333
aF3.111934585759834
aF3.100255151517513
aF3.0979544338961365
aF3.095504206103625
aF3.0930595400228955
aF3.097229293732112
aF3.0961453607918816
aF3.095210976748311
aF3.0941808160028006
aF3.098691211543139
aF3.0987599777622075
aF3.098890344169062
aF3.0990301020731277
aF3.0761459710774153
aF3.07569635594953
aF3.072226098482882
aF3.0683361161201232
aF3.0611710800561447
aF3.0580569703388845
aF3.054059185058152
aF3.0497696306037874
aF3.065752157094013
aF3.065738597720279
aF3.065706695385373
aF3.065690850608892
aF-3.134114352409826
aF-3.126619868663228
aF-3.110613254966887
aF-3.1381766306050776
aF-3.1366740804976034
aF-3.1330170974119915
aF-3.1290617656013664
aF-3.125274932251077
aF3.1278847862589627
aF3.124892412405112
aF3.121844120004441
aF3.0823551705784165
aF3.0811245213626686
aF3.07056511792926
aF3.06079175711992
aF3.118287194292074
aF3.121254104205642
aF3.127815105517672
aF3.133394620352102
aF3.1300599287386186
aF3.1336170755654824
aF3.135528675594075
aF3.138834483032711
aF-3.1373551734610365
aF-3.134720924028199
aF-3.1310054738542705
aF-3.127133649879898
aF3.12622140617521
aF3.1233838360034203
aF3.1193808017026003
aF3.1151970949573005
aF3.10615276614828
aF3.1045603275482976
aF3.099980191078199
aF3.0960709845613272
aF3.104365849015859
aF3.104014351579014
aF3.102730469177164
aF3.1014456293532473
aF3.125543687332759
aF3.128267547382078
aF3.133240732344842
aF3.1377137642569357
aF3.1398395611519727
aF-3.1414071725329866
aF-3.1379138763655487
aF-3.134436345151247
aF-3.1247669554648656
aF-3.1213415316086404
aF-3.116704702216752
aF-3.1120675393493085
aF3.1019983955423918
aF3.1012286890668124
aF3.0946094236791466
aF3.0858570919461985
aF3.0919808832991764
aF3.088467169031495
aF3.0830192296886123
aF3.076943744278908
aF3.1013645061281534
aF3.1023119111560895
aF3.103389441766669
aF3.1044725343322184
aF3.120736025227129
aF3.1251777605138322
aF3.130004503821756
aF3.1340877348105654
aF3.12666199619413
aF3.127968125265069
aF3.129702582564161
aF3.1314364500132847
aF3.108486670775466
aF3.1061493619672396
aF3.102724938506253
aF3.099312478036955
aF3.105271251576259
aF3.103991063890926
aF3.102503363801609
aF3.1012461641323554
aF3.109168886493843
aF3.1094601678832823
aF3.1100115352709357
aF3.1105544622801897
aF3.1024212153207227
aF3.102215726605854
aF3.101138861529581
aF3.1000506343872796
aF3.1077970255988316
aF3.108241117408283
aF3.108955680692031
aF3.1096163457256236
aF3.118839406974563
aF3.121310934696862
aF3.1238152827770196
aF3.126647020871871
aF3.1107047333669997
aF3.1095542245325465
aF3.108295892485741
aF3.1070347900583504
aF3.111089237991699
aF3.110919397763437
aF3.110730267668836
aF3.1105658942701764
aF3.0836522191655797
aF3.0779061133805516
aF3.0715090327995336
aF3.0910073617659686
aF3.091592567640968
aF3.092252875689252
aF3.092965248785054
aF3.091959746247149
aF3.0921078376156093
aF3.092349172341572
aF3.0926243388308103
aF3.111941076145266
aF3.1145222918630187
aF3.1191299537234336
aF3.123709429101938
aF3.106250534187054
aF3.106190944266539
aF3.1061476821328418
aF3.105485590774958
aF3.112881200651374
aF3.1139802449750174
aF3.115284438728664
aF3.1167098336041854
aF3.1169597277017442
aF3.117046072965889
aF3.1179013884313007
aF3.118783728442193
aF3.0919094766797834
aF3.0885878701622826
aF3.0837879578475675
aF3.0785557502906697
aF3.0796874225399122
aF3.079136736063281
aF3.0760716090685682
aF3.0727371860501926
aF3.0895190403180006
aF3.0899689489885387
aF3.0905252044319873
aF3.0917271129996897
aF3.0965292077176825
aF3.098568075791744
aF3.0990640304597394
aF3.1008602372062684
aF3.096849280377403
aF3.0972280048326435
aF3.0976565878956728
aF3.0981199006846762
aF3.109262108610105
aF3.111794035072459
aF3.1146233946518844
aF3.1177282161184676
aF3.118872606411028
aF3.1213696082974636
aF3.123631180521312
aF3.1260943326765562
aF3.0997181056208123
aF3.098941397433866
aF3.0967219169524784
aF3.0931046771033412
aF3.090428057672581
aF3.0888409584533156
aF3.0852436671467514
aF3.082344069054221
aF3.094596693453726
aF3.094729924041215
aF3.094910033453212
aF3.096346016739549
aF3.1148818368843596
aF3.1159536174231866
aF3.1181682465849963
aF3.1218832019678677
aF3.1185374339506167
aF3.120084855707725
aF3.118100827010333
aF3.12114817686482
aF3.108979443525902
aF3.1085191615070986
aF3.1077688695267747
aF3.106929604076506
aF3.1040193387351267
aF3.0987550059669497
aF3.097584605228408
aF3.0961576744250925
aF3.1071807179052033
aF3.108410732751179
aF3.109849922739221
aF3.1112892683378
aF3.0837615385921286
aF3.082778182172533
aF3.080276631788602
aF3.076501998038006
aF3.0944535606551455
aF3.0945541122902243
aF3.095300433426469
aF3.096255319835995
aF3.1223033304224335
aF3.1236697985624082
aF3.1291541707552923
aF3.1346455956586134
aF3.117545759884923
aF3.117852794550871
aF3.118207092225069
aF3.1185940149635774
aF3.098758590488594
aF3.0946350977976067
aF3.0904148361728665
aF3.086328549525752
aF3.0954794020164256
aF3.094263911725958
aF3.093041080306323
aF3.091828395915259
aF3.1084840058261767
aF3.110839695391844
aF3.1130631557445634
aF3.11567021958612
aF3.1112968557331255
aF3.111978706077688
aF3.1129405056590307
aF3.1139821103661456
aF3.1152133796174475
aF3.115869084826076
aF3.116837377693802
aF3.1178048650030847
aF3.118131523688597
aF3.118830302446228
aF3.1194697855106357
aF3.1202469551847325
aF3.1235621969338183
aF3.124748197828181
aF3.126083863863143
aF3.127490796253419
aF3.1021490743454914
aF3.100986757607689
aF3.098102012752535
aF3.094267806327593
aF3.118274504255318
aF3.120105982959769
aF3.1212951471190484
aF3.1233295820881235
aF3.1273092519661514
aF3.1289849318581062
aF3.1313812742044105
aF3.1339955644770545
aF-3.133185923235068
aF-3.132225719399438
aF-3.1289219170432805
aF-3.12443270664833
aF3.1303412770593164
aF3.127586373380781
aF3.1246552048927416
aF3.1243119667813435
aF3.1151477672862957
aF3.1147242021804304
aF3.1113172153989868
aF3.1074395877669962
aF3.110308950419295
aF3.1096336338700588
aF3.107753583681475
aF3.105885834027135
aF3.1281135107885056
aF3.129418315899315
aF3.1307079601888086
aF3.135540076404405
aF3.1357579607628328
aF3.1372494840372243
aF3.1396332938220044
aF3.1284863300865715
aF3.1277814709061267
aF3.126998165982463
aF3.126214760840667
aF3.1167655519695616
aF3.1148143584115227
aF3.112160510122654
aF3.1095064282914
aF3.121141163541549
aF3.1198864315230717
aF3.120894257681753
aF3.1219021926551913
aF3.1160660358105425
aF3.1154924379464894
aF3.1134940179345785
aF3.1128705952133826
aF3.108372554247301
aF3.1074372099541443
aF3.1059965796191316
aF3.1045554423505433
aF3.109869687045279
aF3.1104835254219454
aF3.112370668512291
aF3.1134376089259983
aF3.1169006052388304
aF3.1206714726968467
aF3.1227441960829996
aF3.1249445030652003
aF3.102678635121145
aF3.1012646481357695
aF3.098724207768412
aF3.0954668145963757
aF3.112783721873519
aF3.1137508750774305
aF3.1153634341475227
aF3.1169902450828313
aF3.117827118285479
aF3.1180714043667788
aF3.11926432296974
aF3.1204570746975966
aF3.1217554297593346
aF3.1156855957489342
aF3.1155418670437705
aF3.1153263542930945
aF3.1120353954677076
aF3.1116917924373904
aF3.110836290875014
aF3.109971863979703
aF3.109122657811589
aF3.114403452211921
aF3.1147012760470916
aF3.1150624279391113
aF3.1154248351338176
aF3.111835889877103
aF3.1118080099715
aF3.111581542734328
aF3.111240517926401
aF3.107788343889567
aF3.1067934053539665
aF3.105785065695107
aF3.1047961466804463
aF3.1084811160649903
aF3.1084711658321114
aF3.1084610514259907
aF3.108444392694338
aF3.1149070423037926
aF3.1152193082147632
aF3.115511235319245
aF3.1165849896576097
aF3.1152814965895193
aF3.1155499516688607
aF3.116053820798988
aF3.116569134578161
aF3.114849215579062
aF3.114860646290995
aF3.114905822466852
aF3.1149239404805074
aF3.1125622259050374
aF3.1120847739486472
aF3.1116058681307153
aF3.1111285156490625
aF3.1149956077495085
aF3.1154420351426286
aF3.1158909826802756
aF3.1163385456609083
aF3.115993712785814
aF3.116172015415942
aF3.116435218227419
aF3.1166923455977065
aF3.097769978956751
aF3.0974181250354644
aF3.095365662163233
aF3.092308560696712
aF3.107032312647613
aF3.1075540108417417
aF3.1082969047418705
aF3.1090405002088546
aF3.108872005727595
aF3.1093427152327804
aF3.109858854644291
aF3.1103999892298835
aF3.092779439634051
aF3.090093117338182
aF3.086678114592728
aF3.0832696839062668
aF3.0790577508843713
aF3.0754767404279773
aF3.071883158267292
aF3.068294504214689
aF3.1148984835049096
aF3.119485820732585
aF3.126703075691653
aF3.133802015465745
aF3.112513043493942
aF3.1131458525154447
aF3.1138899630454775
aF3.114558134117171
aF3.0900194630590203
aF3.08516564616524
aF3.080226394571925
aF3.075288071401934
aF3.0853417515965442
aF3.083798516443013
aF3.082311256333138
aF3.0808170650022384
aF3.0894182787563995
aF3.090133151311707
aF3.0909120881651484
aF3.091691723063282
aF3.093595260736022
aF3.094632213833248
aF3.0956725011178845
aF3.0967137790849217
aF3.078680680445015
aF3.077104085109957
aF3.074198036853575
aF3.0713463415749054
aF3.0893042153553654
aF3.0910064150348595
aF3.095273974225454
aF3.097102502003311
aF3.0845551056039087
aF3.083806498432138
aF3.0832882249872164
aF3.0820132909576987
aF3.0909181116617432
aF3.091526741239906
aF3.092404644148615
aF3.0933508793048103
aF3.090778074116648
aF3.090878579462365
aF3.091001285729605
aF3.0911247353511038
aF3.1061859392174296
aF3.1096425356995208
aF3.113067850762883
aF3.1164778596687457
aF3.105516948241895
aF3.1058345556192886
aF3.1062052351344223
aF3.106594938954281
aF3.0662817294555365
aF3.060848114342497
aF3.0530801116300483
aF3.0447453312698114
aF3.093812918410563
aF3.097785871992332
aF3.1017852646367245
aF3.1057888689549333
aF3.112736228285553
aF3.117322163953556
aF3.1219245197103334
aF3.1408550811531364
aF-3.1349555190684777
aF-3.126816111056872
aF-3.1186805415140566
aF-3.1188605463770003
aF-3.113199685158824
aF-3.107260639019481
aF-3.1013172217421796
aF-3.119924488809043
aF-3.1200927670588996
aF-3.1201288685412765
aF-3.1202917808478468
aF3.0894227849631464
aF3.0800502509642143
aF3.063449840035861
aF3.047716559769925
aF3.127965633140407
aF3.134538237043188
aF3.141164691505543
aF-3.1353814141058054
aF3.1087848900015773
aF3.1052093022215526
aF3.1013301759617264
aF3.0974197205111906
aF3.1217466381342818
aF3.124858865681147
aF3.125335934341903
aF3.127311905344651
aF3.037610666524858
aF3.0191690952978703
aF3.000702556711497
aF2.981917795094851
aF3.0213979016902996
aF3.017064209075868
aF3.0123241905325515
aF3.0075621420407948
aF3.11026979915157
aF3.1206246696301903
aF3.1394537657271018
aF-3.1249256195350883
aF-3.113664239303283
aF-3.1066607384098477
aF-3.0916089792196684
aF-3.076547220621685
aF-3.119739001796884
aF-3.118590228656884
aF-3.1175658353610345
aF-3.116597787973103
aF3.0862211008034337
aF3.081359377923411
aF3.0737765492809563
aF3.059281266494986
aF3.1058010008157493
aF3.1058169057362295
aF3.1059079055240617
aF3.105999088973167
aF3.0936707730151216
aF3.092519560495516
aF3.089722273836625
aF3.087461494964406
aF3.1001560847091105
aF3.100326904411072
aF3.1005097904329086
aF3.101118517514666
aF3.1078191598914695
aF3.108828689596335
aF3.110804819932079
aF3.1127574199412935
aF3.1171100549238924
aF3.118391308250028
aF3.1206901972879044
aF3.123081108826125
aF3.1196607562356404
aF3.120218490559837
aF3.1210838323331127
aF3.121950226572478
aF3.130316258304695
aF3.130488230429613
aF3.1321971636358903
aF3.1345642260899482
aF3.134984526006706
aF3.1351006064144076
aF3.13550320716763
aF3.136791489368902
aF3.094255232289269
aF3.0889149662186037
aF3.0800608722384117
aF3.0725653720406694
aF3.086189232283076
aF3.08332950591214
aF3.0801816780880427
aF3.077035109173506
aF3.1091093643147016
aF3.11387392325564
aF3.1186450875488303
aF3.123418542715634
aF3.1213820765178104
aF3.1246270899664363
aF3.1278863110844157
aF3.1311788049752614
aF3.1028704826208306
aF3.0992110902239545
aF3.095533754433843
aF3.091853754366311
aF3.1188515541641793
aF3.1209162282897567
aF3.1237524331008295
aF3.1265892960983432
aF3.111565066483002
aF3.1105724985750034
aF3.1095751105956664
aF3.108577993720424
aF3.0904007491741283
aF3.0857886617504984
aF3.0811739328000094
aF3.0765475663535686
aF3.081543887458783
aF3.078977979976128
aF3.0764065676673753
aF3.073835422882882
aF3.0930075628236655
aF3.093920520359114
aF3.0954945412509525
aF3.0972609636558337
aF3.0983740203395596
aF3.09999936344405
aF3.101627437308484
aF3.1134268874183895
aF3.1149851016888928
aF3.118664784188157
aF3.1223499717566834
aF3.093776077298015
aF3.0907441771341277
aF3.0865958767252235
aF3.082441379169338
aF3.087857058644209
aF3.086531526270647
aF3.084858261992288
aF3.083170005250861
aF3.076574556545663
aF3.075841180457723
aF3.0751238539852586
aF3.0729413759489725
aF3.0698690625039307
aF3.0685491617979506
aF3.066491315704809
aF3.064379253814239
aF3.052470892668634
aF3.050696934589669
aF3.046972610321425
aF3.0429534481502656
aF3.0456482530830926
aF3.0444834731072765
aF3.042323064156913
aF3.0401665831286464
aF3.046795378048612
aF3.046682679652225
aF3.0465558277036187
aF3.0464286617059217
aF3.06252617412789
aF3.065138795579849
aF3.06953532941189
aF3.07293568118048
aF3.0295776252909903
aF3.023310464363217
aF3.0162963101370637
aF3.009308785240549
aF3.011107854020869
aF3.006096719672871
aF2.9958837047067566
aF2.9957174976280987
aF3.0166785187641354
aF3.0172756570856727
aF3.017875304019977
aF3.0184702422235485
aF2.9994764394103806
aF2.99584153252433
aF2.9922016991874867
aF2.9885746849799233
aF2.994200328597104
aF2.9925526546704653
aF2.990897622575257
aF2.9892460313423066
aF2.974201280995392
aF2.9702653464536644
aF2.965843731470103
aF2.961473048540141
aF2.957904922189679
aF2.953681884583099
aF2.949452199054308
aF2.9452271653794817
aF2.951429390972534
aF2.9506038246861452
aF2.9487524855116316
aF2.946897700133556
aF2.935517894620426
aF2.931728032905321
aF2.927929970097313
aF2.9307132871843224
aF2.9297213189092113
aF2.9278221721385154
aF2.9259228810771063
aF2.906050073442976
aF2.9036970546650798
aF2.898969397192455
aF2.8934388865202565
aF2.8876750007758565
aF2.8845979741628605
aF2.879533079229373
aF2.874460467525836
aF2.8777686517106527
aF2.8761723476041308
aF2.8734629951353936
aF2.8707486593055407
aF2.8594708119666365
aF2.8540543897582116
aF2.849524435971754
aF2.848327015069431
aF2.8455082317432168
aF2.8429200994153345
aF2.841678621654238
aF2.8383646331517025
aF2.83715843697038
aF2.8358344142529055
aF2.8333042638792962
aF2.830787045820602
aF2.817464314751606
aF2.8143732878195085
aF2.8096884746543926
aF2.805027620330645
aF2.790351357422038
aF2.786738105347369
aF2.780361986216507
aF2.7739887679471944
aF2.765499153234147
aF2.762580907161767
aF2.756554209126201
aF2.750429872066688
aF2.7482565776107744
aF2.7431055154635846
aF2.737935663314735
aF2.7326193317463567
aF2.733543766171697
aF2.729782828750036
aF2.7260601832123355
aF2.72225248622983
aF2.7039389005856482
aF2.7026303519363664
aF2.6990143228151826
aF2.693344165001945
aF2.6820255752393187
aF2.675052259929362
aF2.6680660544771473
aF2.661074676191272
aF2.671141642680941
aF2.668104233847451
aF2.6650578778707854
aF2.6620088158099438
aF2.647569258484364
aF2.643122901484454
aF2.637657827518821
aF2.632269757938097
aF2.6181540780511865
aF2.6109488838675436
aF2.6036572237117883
aF2.596334754179421
aF2.5901837434339177
aF2.5844249875555088
aF2.577591716409642
aF2.570768855962506
aF2.570603453274948
aF2.5652512605955544
aF2.559870621662638
aF2.554501262399736
aF2.567931759417841
aF2.566655783105367
aF2.565362704611927
aF2.5640212638133297
aF2.5352882047142025
aF2.531220939322774
aF2.52456625331018
aF2.517920133153813
aF2.4886928675085582
aF2.477785105337608
aF2.4663936043427968
aF2.4550344557422825
aF2.476283321598226
aF2.47172239148281
aF2.46715334492262
aF2.462585139255357
aF2.492865546261811
aF2.4955579598210194
aF2.498265555817412
aF2.454832300628461
aF2.4481686248171215
aF2.4393827668674146
aF2.4305916726929846
aF2.436723982368128
aF2.432728114164424
aF2.4280016997335085
aF2.423277213463727
aF2.4071898184252465
aF2.4025789569640397
aF2.3956509456481636
aF2.388676336862785
aF2.3910321207120706
aF2.3882721079973708
aF2.3838966052036614
aF2.3792129226500425
aF2.372800860380418
aF2.368138975530851
aF2.3619099651365425
aF2.358310985298397
aF2.352940676910837
aF2.3484567827771845
aF2.343523929830522
aF2.3386141681081916
aF2.345284048051207
aF2.3432097310246878
aF2.341057568596311
aF2.33889924232936
aF2.3506179944846677
aF2.351692640468903
aF2.3527777579282243
aF2.3538631445548153
aF2.339076675026583
aF2.3370813219274993
aF2.3345760115571377
aF2.3320792500258647
aF2.3360275776847486
aF2.3350863095762158
aF2.3340895103556085
aF2.333091338715823
aF2.3263310284665644
aF2.324044477361356
aF2.32174579535388
aF2.3194526966837077
aF2.335073124202639
aF2.336745201941829
aF2.3384178551865347
aF2.340089812471082
aF2.3550063673743
aF2.3595460925406435
aF2.3641013024989794
aF2.3687704323757943
aF2.3597447852479285
aF2.3608257787516713
aF2.362383405398982
aF2.3639374499778367
aF2.3806915367434742
aF2.3854704690014046
aF2.390264002001456
aF2.395061583301885
aF2.3764102746663522
aF2.3762468877460057
aF2.3760830905577013
aF2.3759190652971136
aF2.3603933915037096
aF2.357058357646173
aF2.353707600014811
aF2.3798900609296614
aF2.3828776739888275
aF2.3868923171960352
aF2.3909111538713543
aF2.3995255530909154
aF2.404172948767319
aF2.409239119375462
aF2.414305837640446
aF2.4086545115589506
aF2.4105264182363597
aF2.412833792329936
aF2.415146450302983
aF2.4319133283109062
aF2.433460829491325
aF2.4384564246262355
aF2.443449124585784
aF2.4348915232143757
aF2.4366154408711287
aF2.4383423577993435
aF2.440071064615365
aF2.426447492588991
aF2.4245319195729205
aF2.422611198096571
aF2.420688232813651
aF2.4299771066582014
aF2.4307168409015945
aF2.4314563529865607
aF2.43219787930793
aF2.449159261187677
aF2.4537034709254444
aF2.458230281124971
aF2.462779241155083
aF2.466763923311757
aF2.4711745227947635
aF2.4758740392141063
aF2.480002330221066
aF2.4854825057869063
aF2.4901235072377412
aF2.4947837123186836
aF2.499443190977148
aF2.4943995721758903
aF2.496863571490783
aF2.4993357931958493
aF2.501803814761704
aF2.5139976380770457
aF2.5187242412170687
aF2.523185415381171
aF2.527791931666171
aF2.528722099776576
aF2.5328042123623913
aF2.5362859668276325
aF2.540082943928465
aF2.5547477362460635
aF2.5608345429856954
aF2.5669475226417444
aF2.5750544427215747
aF2.5877610183085817
aF2.5956691696388803
aF2.603595295697506
aF2.611534546160942
aF2.6127312588323357
aF2.6190784579395165
aF2.6233933356328154
aF2.6151749051132134
aF2.61716927508736
aF2.619745070960904
aF2.6223448765173063
aF2.617902244254228
aF2.618517033036222
aF2.6204579654094275
aF2.62122317394468
aF2.642300067036815
aF2.645587176056695
aF2.650830272103884
aF2.656074648096242
aF2.6760944666782227
aF2.684967037971115
aF2.6938157751415472
aF2.702693206835836
aF2.7230724902887147
aF2.729199793885437
aF2.739779524509613
aF2.750340881459474
aF2.752746285206274
aF2.7613436110357337
aF2.770029540978781
aF2.7800874582417263
aF2.769305219302458
aF2.7731815973155083
aF2.777002057466174
aF2.780980408549989
aF2.7811454539819804
aF2.7842454581142855
aF2.787355986741049
aF2.7904644030135533
aF2.801089068069806
aF2.8058974152596186
aF2.8107215775433674
aF2.8155300981020535
aF2.845613124528243
aF2.846901004756281
aF2.852111726152203
aF2.860540951297507
aF2.8850412362978823
aF2.8970305044096722
aF2.909210897355588
aF2.921246868722155
aF2.9067155007290886
aF2.9127724888401554
aF2.9188496782560875
aF2.9249628459285795
aF2.935348856281499
aF2.9423138946527487
aF2.949341985015405
aF2.9563656620197682
aF2.977342872616836
aF2.9873596076809754
aF2.9974137231167095
aF3.0081114153261193
aF3.004191547364741
aF3.011672998589379
aF3.018506406029012
aF3.0258259108907586
aF3.034148194524428
aF3.0415712318334176
aF3.0490343183422666
aF3.047859821793313
aF3.0504390880375634
aF3.055131090456295
aF3.0598227366020634
aF3.0661017773779506
aF3.06974784904538
aF3.0745987051037718
aF3.079378962551739
aF3.0961325058331934
aF3.1000324258741427
aF3.109269567546618
aF3.1140659802826174
aF-3.1231730132201574
aF-3.115419915366695
aF-3.1005213256869597
aF-3.0859097432147338
aF-3.0754903483731812
aF-3.0641435531143286
aF-3.0508960463973747
aF-3.037619511057247
aF-3.0410029952607416
aF-3.0316727274068938
aF-3.022337790740094
aF-3.012997550301782
aF-3.025583245425613
aF-3.0229205200784093
aF-3.0191379659637425
aF-3.0152594872926373
aF-3.003343519913287
aF-2.9976181849228403
aF-2.991874753658402
aF-2.9861410594754005
aF-2.971301809567797
aF-2.9708802119501785
aF-2.9692435374627415
aF-2.965471790644815
aF-2.9419295727538257
aF-2.9325167257344775
aF-2.9230520195931886
aF-2.913583755234774
aF-2.8790174033883957
aF-2.8718794232100717
aF-2.8582898928329463
aF-2.8447106377026237
aF-2.836660304803653
aF-2.8343225270054564
aF-2.8250498357558573
aF-2.814670796445918
aF-2.8013962400104644
aF-2.7904231298728965
aF-2.779438500240608
aF-2.76844415378262
aF-2.7753723934000867
aF-2.7682563006063425
aF-2.7609610070501787
aF-2.753994766366216
aF-2.7445577725036894
aF-2.7369658444978264
aF-2.7293538558637476
aF-2.7217329480125714
aF-2.7296152077031164
aF-2.727505003465416
aF-2.7234703624267347
aF-2.714586563558725
aF-2.7134560267274614
aF-2.710667267418489
aF-2.706523088733536
aF-2.7023258510452264
aF-2.6992077744443597
aF-2.69528226775276
aF-2.6913346771677924
aF-2.671732108409698
aF-2.667917985859108
aF-2.6608071140280045
aF-2.6536925411830268
aF-2.632328421730093
aF-2.6276175409330826
aF-2.618020275713171
aF-2.6085812527140058
aF-2.594320420705271
aF-2.5915393355372744
aF-2.582450912201197
aF-2.57333493460339
aF-2.572254290223287
aF-2.5686099902466046
aF-2.562133634199037
aF-2.555642501124681
aF-2.5674536671293966
aF-2.565977840045193
aF-2.5639875877536276
aF-2.5620060038982535
aF-2.5523770467207574
aF-2.5507498004697964
aF-2.547358205466242
aF-2.5439715743083293
aF-2.533312625284244
aF-2.528434821526759
aF-2.52340277160053
aF-2.5183564999683417
aF-2.500095306905597
aF-2.494340205249531
aF-2.4867412691073603
aF-2.47913841392069
aF-2.478601694520854
aF-2.4726440066775135
aF-2.4666839558562823
aF-2.460717078654477
aF-2.468582773225901
aF-2.466383772786773
aF-2.4636596250628067
aF-2.460929569826993
aF-2.439090425195273
aF-2.4321841251930887
aF-2.4252438611923743
aF-2.4183004590626047
aF-2.416203199787553
aF-2.4103490770418383
aF-2.4044704054545516
aF-2.398083168402214
aF-2.393582880028922
aF-2.3883326146393897
aF-2.3827209327488283
aF-2.3770922245246573
aF-2.389671249547207
aF-2.388030550310566
aF-2.386268955963545
aF-2.3844769424379564
aF-2.3591469024852567
aF-2.35501176644237
aF-2.3487141642733764
aF-2.345369205602498
aF-2.3444676164259994
aF-2.3398958245700885
aF-2.3353275766680666
aF-2.3384315790554746
aF-2.336717479795694
aF-2.334309504173612
aF-2.331903983950043
aF-2.319985106723732
aF-2.317757757933571
aF-2.313864037886429
aF-2.309650356748601
aF-2.295140549371885
aF-2.291724204110915
aF-2.2856236398682013
aF-2.2795283713389094
aF-2.273410657417444
aF-2.271090228276572
aF-2.265727051747904
aF-2.260372988900953
aF-2.259383590481962
aF-2.258201698768694
aF-2.2544864876057296
aF-2.250762447370544
aF-2.236865037370046
aF-2.2346728774437525
aF-2.226726560300258
aF-2.2239613768945135
aF-2.2148389671145394
aF-2.211256501147179
aF-2.2055366959009897
aF-2.1994486715037964
aF-2.198814119550898
aF-2.1971872245145576
aF-2.1930892197930865
aF-2.1889917561402603
aF-2.177096998894389
aF-2.1716040600505275
aF-2.1657811045743007
aF-2.159963926602298
aF-2.1678562614122
aF-2.167675377808812
aF-2.165779709058633
aF-2.1635323892741267
aF-2.1396606444688606
aF-2.138793261228545
aF-2.1116329761733046
aF-2.1081057607656164
aF-2.10142999485079
aF-2.093189120248258
aF-2.0919608519796298
aF-2.0852990947184056
aF-2.0782470277755993
aF-2.0715718344359666
aF-2.0653569090732264
aF-2.058825124189048
aF-2.0522509474596857
aF-2.048799102767528
aF-2.057481456087087
aF-2.05598907955052
aF-2.05296758102369
aF-2.0500184866846283
aF-2.058254811679994
aF-2.0560837752189047
aF-2.0554970951264218
aF-2.054863470901732
aF-2.0745355027003987
aF-2.0780597918359307
aF-2.081743982043139
aF-2.0854667594114216
aF-2.0739289873737063
aF-2.0743669837460352
aF-2.073824819597254
aF-2.0552651213982154
aF-2.054723400827346
aF-2.0542528730661873
aF-2.051201311229453
aF-2.056744904405423
aF-2.056256722877906
aF-2.0554509460365358
aF-2.054619066882649
aF-2.0385180100306486
aF-2.037098712077835
aF-2.033123891407104
aF-2.0291334859511534
aF-2.041133813875835
aF-2.041160812699714
aF-2.041407975476859
aF-2.0416875412695847
aF-2.0554554637428035
aF-2.0577871290846868
aF-2.060797531366912
aF-2.0640775201502484
aF-2.0622111666207346
aF-2.0639386435176013
aF-2.0658975188376774
aF-2.0678628551190323
aF-2.0531695835004995
aF-2.051355572501038
aF-2.049372262163271
aF-2.047389292898946
aF-2.046531680683641
aF-2.044522587724261
aF-2.044035154172657
aF-2.0424691119878045
aF-2.0564467127690342
aF-2.0568395392205185
aF-2.0582243477951914
aF-2.059910227982813
aF-2.0634432356494465
aF-2.064041960333679
aF-2.0657231275689165
aF-2.067526489547707
aF-2.056912662442144
aF-2.056275622347768
aF-2.055513693654946
aF-2.05461397359391
aF-2.059848225955971
aF-2.059940560633838
aF-2.0603311939127322
aF-2.060720334778534
aF-2.048280583273895
aF-2.0461657859695115
aF-2.043795622500273
aF-2.0414479918977877
aF-2.040954868846336
aF-2.0389987384869777
aF-2.037033102128492
aF-2.035068377088931
aF-2.0424238452626096
aF-2.04243130053376
aF-2.042440720902181
aF-2.0424500876797826
aF-2.041042992012853
aF-2.0407608333853235
aF-2.040473616494811
aF-2.042895004418516
aF-2.0429454528195765
aF-2.043295812927351
aF-2.0436471445986517
aF-2.0426831290883736
aF-2.0426898236093973
aF-2.042694949139479
aF-2.0427018834519455
aF-2.0366513182192976
aF-2.0364648869258573
aF-2.0356205566628605
aF-2.0344409483315373
aF-2.0296950486682466
aF-2.029093116636411
aF-2.0273449062744797
aF-2.025577785059425
aF-2.0152846190166795
aF-2.0130331578660887
aF-2.009514024083246
aF-2.0059919154035546
aF-2.0191803146195184
aF-2.019383876307843
aF-2.019800301340311
aF-2.0202161557292553
aF-2.0299506768698783
aF-2.031818515840162
aF-2.0343615877855106
aF-2.0366056971574853
aF-2.0479232356205226
aF-2.0495874954160427
aF-2.053154755010081
aF-2.057083608047951
aF-2.0053933140616977
aF-2.0034715608993183
aF-1.99641414757024
aF-1.9891402884574132
aF-1.9864752511333503
aF-1.9843916409423605
aF-1.9799835403989063
aF-1.9746346586729444
aF-1.996498586638795
aF-1.9971040104933637
aF-1.9977104714776315
aF-1.9983190820164278
aF-1.9979591779595733
aF-1.9983561383319524
aF-1.9987600256921434
aF-1.999150849275872
aF-1.9923969043009102
aF-1.9919020042957578
aF-1.990902859530073
aF-1.9899024946657613
aF-1.9730105061970227
aF-1.9686910917677694
aF-1.96436034915804
aF-1.9600291388711355
aF-1.9638199508480911
aF-1.9611752795489878
aF-1.9585339908448434
aF-1.9558131587125103
aF-1.9549048072258817
aF-1.952601075555131
aF-1.950301221398738
aF-1.9426485966979392
aF-1.9412614957385783
aF-1.9400588390465745
aF-1.9372003704042775
aF-1.930336326340682
aF-1.9275601770320536
aF-1.923917703166094
aF-1.920286490093594
aF-1.927299627624711
aF-1.926585814186875
aF-1.9256128848723442
aF-1.9246410097282727
aF-1.9175855939097997
aF-1.9166287440491012
aF-1.9157727551280972
aF-1.9138221143762344
aF-1.9020356603906845
aF-1.8997629917052945
aF-1.8958827397123363
aF-1.8920039624097948
aF-1.8929278756058328
aF-1.8915083193016573
aF-1.888987680011478
aF-1.8864673030136208
aF-1.8992634572817881
aF-1.9001808038424126
aF-1.9011261589081399
aF-1.9020707128671372
aF-1.896941235154911
aF-1.8965089981623513
aF-1.8960749463237347
aF-1.8956412900729782
aF-1.9026107298037402
aF-1.903882435273341
aF-1.9049861459679756
aF-1.9061808807477207
aF-1.9035442897308275
aF-1.903879886903024
aF-1.9042293983671392
aF-1.9045788832639192
aF-1.8970883379064647
aF-1.8964575469347515
aF-1.8952285211205233
aF-1.8939998539838427
aF-1.8915374757774182
aF-1.890048457584164
aF-1.8885297487201007
aF-1.887063458341226
aF-1.888007968937979
aF-1.8870275333196962
aF-1.8860447342773117
aF-1.8770849752920329
aF-1.8752429023361563
aF-1.8724407863170218
aF-1.8696350595114934
aF-1.8644444188438005
aF-1.8616023400551356
aF-1.8599687873033237
aF-1.8526687219128775
aF-1.8510507726368504
aF-1.8482378234806052
aF-1.8455538017091742
aF-1.8499523901140134
aF-1.8489588041354446
aF-1.8478586629293428
aF-1.8458843028062262
aF-1.8402090918035237
aF-1.8384083868886305
aF-1.8363598049312462
aF-1.8343016025136134
aF-1.817082668999245
aF-1.8157221751343018
aF-1.810867940596454
aF-1.8064494858282334
aF-1.7957240626224573
aF-1.7897368755506173
aF-1.7838802533700449
aF-1.7779444045748478
aF-1.7926974646550515
aF-1.791464410469796
aF-1.7901041814335419
aF-1.7888456470457932
aF-1.7946662578460624
aF-1.794905471533109
aF-1.7951597223051257
aF-1.78331067146814
aF-1.7826733332333198
aF-1.7813466066562496
aF-1.779031326357052
aF-1.7605968185336316
aF-1.7577048356142553
aF-1.7523049500989403
aF-1.7466353786240203
aF-1.7478356892493083
aF-1.7465523411878443
aF-1.7436692638354268
aF-1.7402263770303863
aF-1.7343653623412758
aF-1.7322331108896425
aF-1.7286136739005578
aF-1.7250111264038053
aF-1.7178467799861978
aF-1.7164423404764446
aF-1.7127853139393716
aF-1.7089473369765658
aF-1.7154598565519368
aF-1.7139898074074487
aF-1.7132591898321905
aF-1.7109385556386585
aF-1.7107359851452835
aF-1.7097371241248933
aF-1.6925679576652373
aF-1.690343542785233
aF-1.6857699466343241
aF-1.6811944650758066
aF-1.6775673331084435
aF-1.675545560128338
aF-1.6719451836192993
aF-1.668115058091936
aF-1.6772536128535187
aF-1.6770920451720905
aF-1.6765627519996156
aF-1.6759966748327133
aF-1.6599566006163866
aF-1.6573590108238685
aF-1.6533777045322031
aF-1.6493970352520924
aF-1.6474231650560673
aF-1.6443570048467244
aF-1.6420477499024224
aF-1.6388212191925773
aF-1.650659983011167
aF-1.6509184799069998
aF-1.6512267284131268
aF-1.651551674022152
aF-1.6536785007838692
aF-1.654265974985261
aF-1.6549742299106245
aF-1.6557831939708125
aF-1.6350327966811014
aF-1.6306410870997918
aF-1.6266522981304037
aF-1.622415478697065
aF-1.6258349168933506
aF-1.6236849745950275
aF-1.621259303885137
aF-1.6186841117089503
aF-1.6284328418449925
aF-1.6287076097120572
aF-1.6289864800013691
aF-1.629263174107312
aF-1.6386085454623576
aF-1.6401810015232414
aF-1.6422447139432461
aF-1.6443889301028052
aF-1.6405726143487025
aF-1.641043557664839
aF-1.6418124984381337
aF-1.642617849675284
aF-1.6273481354571229
aF-1.6244131119303395
aF-1.6214611286080454
aF-1.6185122235240188
aF-1.6094459070272353
aF-1.6088305563433178
aF-1.6059932494190219
aF-1.6024654137950811
aF-1.595150005181867
aF-1.590782075633605
aF-1.5863946268267353
aF-1.5817865034187397
aF-1.5934285174262446
aF-1.5928994258795999
aF-1.591722455818199
aF-1.5899810324452315
aF-1.5897399287477747
aF-1.5892066373903135
aF-1.5879041837632384
aF-1.5871107609659436
aF-1.5866800630776612
aF-1.5863726303660417
aF-1.5872213100946126
aF-1.5868808644807475
aF-1.5865285662230457
aF-1.5861767481544313
aF-1.5855170538641998
aF-1.5851153986646238
aF-1.5846956503283496
aF-1.5842759087137752
aF-1.5816031287897359
aF-1.5806897513335394
aF-1.5797569062342733
aF-1.5788235944193596
aF-1.577318281949671
aF-1.5765488048863168
aF-1.5755427186071855
aF-1.574527625826872
aF-1.5825114635277415
aF-1.5834924086616329
aF-1.5846090383251836
aF-1.5854606059923373
aF-1.5772173153046887
aF-1.5761821551425292
aF-1.57514365426809
aF-1.5741069669231742
aF-1.5799319910278093
aF-1.580386272858808
aF-1.5808434931729052
aF-1.5812983054620802
aF-1.5615595863925165
aF-1.558559646334819
aF-1.5548917445647996
aF-1.5512221689996606
aF-1.5551628195308855
aF-1.5537687387235328
aF-1.5518019260923486
aF-1.564944810454399
aF-1.5661356446121957
aF-1.5679008223923345
aF-1.5696709715281643
aF-1.5588887995673393
aF-1.558018303808987
aF-1.5567455724461279
aF-1.555352042119832
aF-1.5726849208688791
aF-1.5733062262772983
aF-1.576086909597491
aF-1.5788634302347195
aF-1.5659210761713056
aF-1.5653053805124264
aF-1.5643446398213603
aF-1.5633790667720728
aF-1.5589989639774013
aF-1.5574099973995026
aF-1.5556633575932166
aF-1.5539099038383972
aF-1.561579073511543
aF-1.5620414589442075
aF-1.5625386751582024
aF-1.5630145823282675
aF-1.5692168253172074
aF-1.5699467956095274
aF-1.5716419413410139
aF-1.573190711231769
aF-1.5642832045549553
aF-1.5650599882075138
aF-1.565498485004812
aF-1.5648499253834727
aF-1.5636404656995604
aF-1.5634874032252428
aF-1.5627368446233352
aF-1.5619860877422995
aF-1.568429790073921
aF-1.5708965193779558
aF-1.5717578423794243
aF-1.5726261771009133
aF-1.5752573029056796
aF-1.576391176811835
aF-1.5776279056488638
aF-1.578863679284195
aF-1.5787518804870353
aF-1.5786415113644356
aF-1.578641894337577
aF-1.5785328871807878
aF-1.5859179763312667
aF-1.587490986697854
aF-1.589069060822556
aF-1.5906531015949106
aF-1.5903861328331117
aF-1.5915479986533247
aF-1.5927163102274173
aF-1.6005653356848197
aF-1.596519382775954
aF-1.596730053773324
aF-1.5967635630697898
aF-1.5967971148871811
aF-1.5890588448231955
aF-1.5874264238422622
aF-1.585785946128799
aF-1.5796300055790953
aF-1.5816406283247533
aF-1.5809773458874257
aF-1.5801406783891756
aF-1.579300119071772
aF-1.5927391973361456
aF-1.594828289318861
aF-1.5895272301036678
aF-1.5837751769208313
aF-1.5838400903345722
aF-1.5840143696872557
aF-1.5841863501414934
aF-1.5873990620811034
aF-1.5876250536696483
aF-1.5883973337073691
aF-1.5891886412187137
aF-1.5727292758215012
aF-1.569941426257041
aF-1.566584883998944
aF-1.5632389393312702
aF-1.5824799932527045
aF-1.5829262373592978
aF-1.5831928789017666
aF-1.584725699567372
aF-1.5919668186169251
aF-1.5943475824419677
aF-1.5970919317533188
aF-1.5999035996554056
aF-1.5935153615673614
aF-1.5939430495442208
aF-1.594527474873915
aF-1.5951113047590535
aF-1.5705804248975321
aF-1.5668844235562476
aF-1.5618826104636396
aF-1.5568838789562969
aF-1.572357336576121
aF-1.5721687272274603
aF-1.5719368892046712
aF-1.571705125357587
aF-1.5994719922898655
aF-1.603098966947636
aF-1.6087868150558835
aF-1.6144635799024982
aF-1.599488161102876
aF-1.6001113476929005
aF-1.6010780707704573
aF-1.6020467380141923
aF-1.5931111725866955
aF-1.5923096724324053
aF-1.5911634072715881
aF-1.5900211019242059
aF-1.5861757266242973
aF-1.5854163310588278
aF-1.5837537710767435
aF-1.5822931120251453
aF-1.585720334692285
aF-1.5852331943460896
aF-1.584744445443863
aF-1.5842561089417864
aF-1.5827831312970233
aF-1.5820884653513851
aF-1.581296061247086
aF-1.580693818512022
aF-1.581019043977472
aF-1.5805816372385908
aF-1.5801055144051108
aF-1.586927764023651
aF-1.5878912962398974
aF-1.5892191483820348
aF-1.5905450629063589
aF-1.5882533839430215
aF-1.5885326461026814
aF-1.5889177466569493
aF-1.5893021253689241
aF-1.588619208556454
aF-1.588696406530587
aF-1.588809642909941
aF-1.5889239507929478
aF-1.5868656920451458
aF-1.5867990865016213
aF-1.5864537605075721
aF-1.586093791671303
aF-1.5778619195373014
aF-1.5771431783583956
aF-1.5751360866823603
aF-1.5731347906596933
aF-1.575737723180039
aF-1.5754204557000664
aF-1.574803531531201
aF-1.5740770937442548
aF-1.5823335379421954
aF-1.5834283455716094
aF-1.584791728471125
aF-1.5861539118383943
aF-1.5733493374083032
aF-1.5713666391896337
aF-1.569373216367006
aF-1.5673884241833462
aF-1.5654828575409352
aF-1.5644244254429212
aF-1.5626333902606624
aF-1.5608374451784282
aF-1.568700730738657
aF-1.5690766005975099
aF-1.5694527822877953
aF-1.5698293812597568
aF-1.57732526635177
aF-1.5792545071405957
aF-1.5811848910962547
aF-1.5841847539689144
aF-1.5655840689563587
aF-1.5647373443015151
aF-1.56412910436302
aF-1.5625540718108435
aF-1.5545906124479885
aF-1.5531209795318879
aF-1.5514033449357927
aF-1.5487546289491514
aF-1.555856360360199
aF-1.5552649627550161
aF-1.5546706476478678
aF-1.5540755295149342
aF-1.5603751444635119
aF-1.5612155261423672
aF-1.5620580417723142
aF-1.5629034882085064
aF-1.565884006536303
aF-1.5671611201993736
aF-1.5684476930121618
aF-1.5671014200751776
aF-1.5673240597843399
aF-1.5678466151060984
aF-1.5683670865083437
aF-1.560136745211516
aF-1.559185394503905
aF-1.5590076094371375
aF-1.5577117728857417
aF-1.5548463565418356
aF-1.5542052189896896
aF-1.5504940076574854
aF-1.5493281551185016
aF-1.5550591690706472
aF-1.5554405286054336
aF-1.5559528085344465
aF-1.5564644784650634
aF-1.5636417676052166
aF-1.5657947179942349
aF-1.5660274046778153
aF-1.567752375093672
aF-1.56214226143083
aF-1.5621274081010608
aF-1.5620701354041973
aF-1.5595907196320453
aF-1.5532920938387045
aF-1.5516909143975897
aF-1.5503847709002934
aF-1.5488837568742835
aF-1.550799814257167
aF-1.550271621442741
aF-1.5496309988032877
aF-1.547826980712168
aF-1.5490858218443886
aF-1.5490687772405005
aF-1.548969447256902
aF-1.5488502470805379
aF-1.554016914569282
aF-1.5550941283205473
aF-1.5563395810013487
aF-1.5572465943545881
aF-1.5554282130589923
aF-1.5558610612604764
aF-1.5563737624445604
aF-1.5567226100849763
aF-1.5454491027080455
aF-1.5435588457333045
aF-1.541336417850689
aF-1.5391513021649483
aF-1.539304013368978
aF-1.5377476413369908
aF-1.5361138369185712
aF-1.5344818737964643
aF-1.5399331369328015
aF-1.5398940275522839
aF-1.539853695969283
aF-1.5398153078216759
aF-1.5489171778897823
aF-1.550100190448206
aF-1.5519524712073995
aF-1.5537987739795682
aF-1.5383897587867668
aF-1.5362129434555727
aF-1.534468722835564
aF-1.5324894038999046
aF-1.5338149390488744
aF-1.5326429910537018
aF-1.5314098689865299
aF-1.5301779014264025
aF-1.5302557905093217
aF-1.5293099645368207
aF-1.5283606807157202
aF-1.5274128961813338
aF-1.52907687143966
aF-1.5286909603304373
aF-1.528303515787279
aF-1.5279164120072168
aF-1.5259559855406701
aF-1.525238356348141
aF-1.5245172007151493
aF-1.5237968293763564
aF-1.5393914353381188
aF-1.5423034321651117
aF-1.5448608603931318
aF-1.5475787605360893
aF-1.5516168869724052
aF-1.5518246251338998
aF-1.5541929500893024
aF-1.5566889455829163
aF-1.5464268558878784
aF-1.5462624558309146
aF-1.5460974788598465
aF-1.5459299308585337
aF-1.5461122414935669
aF-1.5460121286233057
aF-1.5459245698487656
aF-1.5434114470608848
aF-1.542961018869956
aF-1.5422579289537275
aF-1.5416415986656706
aF-1.5353928517761743
aF-1.5346405758718014
aF-1.532828778914288
aF-1.5310145521953233
aF-1.5312002949165415
aF-1.5302785286773215
aF-1.529042855412711
aF-1.527807938050564
aF-1.5299013014293197
aF-1.5296434134007817
aF-1.5292610955078831
aF-1.528878199191707
aF-1.53493281213836
aF-1.535519855176064
aF-1.5366976378232107
aF-1.537662777539671
aF-1.5462883140485355
aF-1.547657596926564
aF-1.550263725181678
aF-1.5528738097552963
aF-1.5486900960413774
aF-1.5494324374319888
aF-1.5503624968218026
aF-1.5512950871069981
aF-1.5299512539172757
aF-1.527818139038666
aF-1.5253406460518886
aF-1.5216512466804348
aF-1.527672392660995
aF-1.527396626032063
aF-1.526192827835457
aF-1.5245790754578543
aF-1.5444329756586792
aF-1.5468555197296594
aF-1.5502669619424339
aF-1.5537952650627167
aF-1.5612800038125392
aF-1.5628281963304986
aF-1.5710607263758953
aF-1.5634371671713387
aF-1.5640845631453302
aF-1.564691708722699
aF-1.5615128613808655
aF-1.5615670404456476
aF-1.5615984247569024
aF-1.5631703844872786
aF-1.5707467506489992
aF-1.5724299631868195
aF-1.572904370114891
aF-1.5732477785866747
aF-1.569496117303172
aF-1.569754417524239
aF-1.5700258311028183
aF-1.5671780247509104
aF-1.574469155507567
aF-1.575813831679979
aF-1.5769571009775958
aF-1.5786474533848684
aF-1.5736533228028577
aF-1.5737383693120441
aF-1.573896948460267
aF-1.5740706237986413
aF-1.5663474311419339
aF-1.5650967078777687
aF-1.5635280261465077
aF-1.5647091851074326
aF-1.574894960602678
aF-1.5759777019922068
aF-1.5769837418703065
aF-1.5780443489529383
aF-1.5659641906122204
aF-1.5641330973234286
aF-1.554914832204652
aF-1.55455596324104
aF-1.552531828412774
aF-1.5497666106540138
aF-1.5495276742980155
aF-1.5490087751198962
aF-1.5471238819788444
aF-1.545241936657379
aF-1.5658900442669996
aF-1.5668269682439482
aF-1.5686140522341416
aF-1.5714956304774246
aF-1.5774306913480765
aF-1.579197986274677
aF-1.5824610018509935
aF-1.5858683924105332
aF-1.5874172624020717
aF-1.587602055377728
aF-1.5896121732958655
aF-1.5919133121015632
aF-1.564343313182756
aF-1.562871533186132
aF-1.5587695497998388
aF-1.5545578671647593
aF-1.5537335888917816
aF-1.5517371555804649
aF-1.548620661048552
aF-1.545293616618627
aF-1.5410057986977002
aF-1.5389284716277871
aF-1.5357464814630941
aF-1.5325616126145225
aF-1.5595536782865393
aF-1.5599211366897527
aF-1.5620931662168225
aF-1.56525764090267
aF-1.5737019343148333
aF-1.5745965763653587
aF-1.5783494780034952
aF-1.582261047031783
aF-1.5694161846311196
aF-1.5693589608754055
aF-1.5692076170371307
aF-1.5690565523036872
aF-1.5521551327711713
aF-1.549824291225311
aF-1.5463098414612113
aF-1.542222610209141
aF-1.5391670126437889
aF-1.5368516044850227
aF-1.5334520909163007
aF-1.5299058829918737
aF-1.5258856713908806
aF-1.5230719466766502
aF-1.5196410286418034
aF-1.5162114428369642
aF-1.5357191178706873
aF-1.5367255513968259
aF-1.538368757239944
aF-1.5401615306148253
aF-1.542316818607606
aF-1.54431909588364
aF-1.5460013670300434
aF-1.5479733020770403
aF-1.5487484634541726
aF-1.5502153756635353
aF-1.5518128914501417
aF-1.5534166124707438
aF-1.5512538735102455
aF-1.5520146937277937
aF-1.5527124964365044
aF-1.553442943639578
aF-1.5522538270131583
aF-1.5525388105175932
aF-1.5528249626995674
aF-1.5531367365928297
aF-1.550852849374274
aF-1.5505420975291588
aF-1.550229499408228
aF-1.5499175812968053
aF-1.5605689076561382
aF-1.5629309036156849
aF-1.5650934843678443
aF-1.5673582001980606
aF-1.5678392318031509
aF-1.5696801679464945
aF-1.5715278378609285
aF-1.5734677404819193
aF-1.5743903840227482
aF-1.5760375395902173
aF-1.5776922893640077
aF-1.5793428583552243
aF-1.5716509966546675
aF-1.5711524817468396
aF-1.570693586448791
aF-1.5702117100012718
aF-1.570804717340869
aF-1.5706128981310392
aF-1.5703838061287265
aF-1.5701438677355584
aF-1.569798313973884
aF-1.5695416254272712
aF-1.5692839462788004
aF-1.5690266474967038
aF-1.5701901833553753
aF-1.5702517901673434
aF-1.5703114899633945
aF-1.5703741300868381
aF-1.5783012333493294
aF-1.5801286910903307
aF-1.5819591840004672
aF-1.5838769343575718
aF-1.5711848604646772
aF-1.5708774545582922
aF-1.569596018940883
aF-1.5685045892512761
aF-1.5816266883624803
aF-1.5836400628386782
aF-1.5856102090486888
aF-1.5876642148989297
aF-1.595755029023819
aF-1.6243294886053308
aF-1.6277104277024952
aF-1.6313203504476543
aF-1.6182666575249456
aF-1.61807092480002
aF-1.6178739546322116
aF-1.6176682285742465
aF-1.6157059209235751
aF-1.6149305564410554
aF-1.614519462939399
aF-1.6139255746252106
aF-1.614362300465314
aF-1.6139996778538543
aF-1.6136355079572784
aF-1.6115933054404257
aF-1.6162038618121928
aF-1.6169286155956473
aF-1.6176691712654394
aF-1.6184096676855633
aF-1.6215101617698444
aF-1.5975196777088945
aF-1.598607040465143
aF-1.599861962214022
aF-1.6029794673155213
aF-1.6042748998496803
aF-1.605872982097323
aF-1.59156530896167
aF-1.5817163012807787
aF-1.581488970095246
aF-1.5807211812217559
aF-1.5799556981127585
aF-1.5723704744139224
aF-1.5700695421826338
aF-1.5678779158365996
aF-1.5656234368004318
aF-1.5659870788109467
aF-1.5644259592896832
aF-1.562796148030745
aF-1.5610857244289609
aF-1.5658518989139585
aF-1.5655705010936778
aF-1.5652875921892753
aF-1.565003735886065
aF-1.5521937420072494
aF-1.5504656464948305
aF-1.5478382294855104
aF-1.545097397373316
aF-1.5304823590582535
aF-1.5252258117789694
aF-1.5199372865341576
aF-1.5144217219639848
aF-1.4918959537579206
aF-1.4829008197126656
aF-1.4738726377625746
aF-1.4648578916819903
aF-1.467721099459482
aF-1.4608485593440326
aF-1.4547023270583865
aF-1.4482014008264676
aF-1.4462246843213267
aF-1.4407012646294024
aF-1.4351556127178122
aF-1.4293005513219552
aF-1.4391213318376697
aF-1.4367273169832717
aF-1.4343175833836816
aF-1.4319276999843158
aF-1.419405932596768
aF-1.414721431605665
aF-1.4104243637851872
aF-1.4059321136687988
aF-1.37352083247645
aF-1.3702307696873806
aF-1.3639824965232776
aF-1.3549076293792877
aF-1.3260458957247996
aF-1.3131808616666272
aF-1.3002610975172342
aF-1.2872985415684743
aF-1.2973813535407075
aF-1.293221137320325
aF-1.2861219451774037
aF-1.2786552501670765
aF-1.2928332600629189
aF-1.290617051154018
aF-1.2877798160456457
aF-1.2846898061816245
aF-1.265372258177075
aF-1.2591278455759267
aF-1.2528524512397252
aF-1.2465847082631927
aF-1.2180736783559534
aF-1.2100671624402484
aF-1.200359120986794
aF-1.18987282938013
aF-1.1755283519672572
aF-1.1729136347636555
aF-1.1632695887634228
aF-1.1530619472969525
aF-1.1588199086419257
aF-1.152227631728714
aF-1.1455484503232791
aF-1.1387602379440345
aF-1.1160191689325145
aF-1.102933310099427
aF-1.0986792619113013
aF-1.0791680157092944
aF-1.078488346040017
aF-1.0706750465597707
aF-1.06023550581551
aF-1.0292763113894905
aF-1.0274030117954445
aF-1.0208192215744232
aF-1.008978974787983
aF-0.9967952094812984
aF-0.9843255759663952
aF-0.9789417662026743
aF-0.9686380532041737
aF-0.9613524852132328
aF-0.9549041211775146
aF-0.9456828937717693
aF-0.9364498502917914
aF-0.9263132365843492
aF-0.9225672946302195
aF-0.9142502399785558
aF-0.9059464210483237
aF-0.9054428342551296
aF-0.9016694597299848
aF-0.8955446274137112
aF-0.8899705406259515
aF-0.8643945190143324
aF-0.8559356419988876
aF-0.8456615659036758
aF-0.8354169898749944
aF-0.8365544745630247
aF-0.8331999950639917
aF-0.8276012267617837
aF-0.8211186102741497
aF-0.7637211746755568
aF-0.7521997706623078
aF-0.7339017210190592
aF-0.7174291619112403
aF-0.6875593632410588
aF-0.6783068167900547
aF-0.6601877534724091
aF-0.6413720944310479
aF-0.6474708006674592
aF-0.6418991091492169
aF-0.6305782848314313
aF-0.6198134255523755
aF-0.6569689502410367
aF-0.6571564284100954
aF-0.6576598742338466
aF-0.6582273233971994
aF-0.6473530913503891
aF-0.6471586108824349
aF-0.645042272092976
aF-0.6429622177565
aF-0.5661775921513447
aF-0.5551122673324635
aF-0.5373882134073671
aF-0.5193466855811459
aF-0.48278979159588853
aF-0.46448536097733106
aF-0.441827140565644
aF-0.421173247852757
aF-0.4238860498934072
aF-0.42020811528011964
aF-0.40662117493528366
aF-0.39296060946130495
aF-0.4494067108736377
aF-0.4503570448564527
aF-0.4526859200517243
aF-0.45494280524138825
aF-0.4533675581885406
aF-0.45442481408634905
aF-0.4558180626866767
aF-0.4570927422792274
aF-0.4414729868667365
aF-0.4388911888397268
aF-0.4363051184021888
aF-0.43372092037701304
aF-0.3724165007073912
aF-0.3572719867326423
aF-0.3413423574903383
aF-0.32537199354066465
aF-0.29396356658933104
aF-0.2745713754760141
aF-0.25419177512858754
aF-0.23515869145747711
aF-0.2581307224727619
aF-0.25122739147567796
aF-0.24181491563035992
aF-0.2323781460742264
aF-0.2970201110343668
aF-0.30319124268473385
aF-0.31044603762582623
aF-0.3176345011642125
aF-0.2961859181060245
aF-0.2964929004856949
aF-0.29730518588198596
aF-0.2979725457663591
aF-0.2073245498596475
aF-0.19035610812434572
aF-0.18472830312562166
aF-0.16863772339079713
aF-0.15566591530101667
aF-0.14034150743317084
aF-0.12448856840523426
aF-0.10854849694895184
aF-0.16943303741108048
aF-0.1698376363483239
aF-0.17099023544830064
aF-0.17202691246332438
aF-0.17339761439137724
aF-0.17411151559192822
aF-0.1748057556803473
aF-0.17582241849701272
aF-0.17958000905782898
aF-0.1804313982578686
aF-0.1819088542983834
aF-0.18338636944139533
aF-0.18245104532375828
aF-0.18293126112351887
aF-0.18383203708455728
aF-0.18465537125294135
aF-0.1266170062585692
aF-0.11457208138002373
aF-0.10249658059968086
aF-0.0904194858149788
aF-0.06887812818411812
aF-0.0610359367934301
aF-0.047987136661995014
aF-0.03502942318249022
aF-0.05918482775271864
aF-0.05745531113112663
aF-0.05353798743141059
aF-0.049475567136448455
aF-0.07191286383730221
aF-0.0729116709378356
aF-0.07454628787812459
aF-0.07617553916927924
aF-0.09003574869881287
aF-0.09284635310269075
aF-0.09692925481865601
aF-0.1010377114892262
aF-0.0781273605269509
aF-0.07759628559641087
aF-0.07580533876623306
aF-0.07422774452132591
aF-0.022733767946126266
aF-0.014067609209545766
aF-0.002077282986887168
aF0.009944397408659997
aF0.025254211134032967
aF0.03709062983991311
aF0.04964277081490422
aF0.0622234984046801
aF0.025307682546138865
aF0.027008416695508776
aF0.028790406844069617
aF0.030402638976586092
aF-0.007295532052116238
aF-0.01422461870396306
aF-0.021157863389925733
aF-0.028075778790114598
aF-0.030768464321386173
aF-0.03647173280996578
aF-0.04241503400676195
aF-0.048360452229723135
aF0.0002870974735749396
aF0.004752912378728319
aF0.010807046807918906
aF0.015977737108432397
aF0.01622408685072853
aF0.0206656630857045
aF0.02509362466740074
aF0.029937846274960288
aF0.011174453051806246
aF0.010710414992737935
aF0.009947435376954594
aF0.008132908291661679
aF0.0009112424943731926
aF-9.737317940230926e-05
aF-0.0019764481760961793
aF-0.0037041997980509977
aF-0.020007387006719772
aF-0.020189731974132836
aF-0.020358826356065503
aF-0.0205579678063872
aF-0.004703449476488399
aF-0.00025401555757394455
aF0.0029975925999387214
aF0.006200176175801056
aF0.014533508250064189
aF0.0188575532537309
aF0.023392874104225095
aF0.027537222966128864
aF0.015377157013543516
aF0.016099245332738602
aF0.016839690972552765
aF0.017564829203540012
aF0.015339330905032514
aF0.015421512291917478
aF0.015509522023723644
aF0.01559323661885167
aF0.002523064764346389
aF-0.00021877302837988098
aF-0.0031751315463428987
aF-0.005792598832842712
aF-0.030531610141154224
aF-0.038061368636543365
aF-0.045624415215673765
aF-0.05337709200481788
aF0.03846510269467685
aF0.0511638953235617
aF0.06485504160084242
aF0.07861187897177431
aF0.08239699736999341
aF0.09376050879942545
aF0.10628436091473778
aF0.11691738660810622
aF0.01442314555072943
aF0.006836192739861375
aF-0.005090322423143618
aF-0.017054571247483157
aF0.02648738406608455
aF0.026485599846198412
aF0.026481840343650837
aF0.026478082419885987
aF0.05859135773506335
aF0.05951222544592427
aF0.06562006897711564
aF0.07133359420050149
aF0.031698094196377605
aF0.028916896767803728
aF0.02507212564123568
aF0.02119768964608782
aF0.022930515256528096
aF0.020527521318055013
aF0.017940968291348676
aF0.015348460261497821
aF0.021867018856353
aF0.021264859649470506
aF0.020630602496445254
aF0.02005860372907171
aF0.02350384800020204
aF0.023778973095042462
aF0.024053826571535562
aF0.02433068074902649
aF0.034252838553946834
aF0.03646010773358777
aF0.03879046348771385
aF0.04113315030242658
aF0.03584528544114011
aF0.03656272733790009
aF0.037316228377321826
aF0.037999375299834035
aF0.047419599609222915
aF0.048073516048119325
aF0.05028304534004472
aF0.052581679476247624
aF0.03616624759439342
aF0.035354604163662484
aF0.0339414941926885
aF0.0324675553360037
aF0.05177172728467987
aF0.05452521342112616
aF0.05740035943010444
aF0.06013193003315145
aF0.050086252079349976
aF0.05015982741819927
aF0.050247830037895055
aF0.05041013008004085
aF0.034293211272685545
aF0.031938024825136864
aF0.028913512493921285
aF0.030871143114195528
aF0.030758817837471673
aF0.030384551654564305
aF0.029221075862867128
aF0.037504148008445745
aF0.037626452217018276
aF0.03868568061447276
aF0.03928285270139033
as.